ARM GAS  C:\Users\dph5ah\AppData\Local\Temp\ccYBbjKj.s 			page 1


   1              		.syntax unified
   2              		.cpu cortex-m3
   3              		.fpu softvfp
   4              		.eabi_attribute 20, 1
   5              		.eabi_attribute 21, 1
   6              		.eabi_attribute 23, 3
   7              		.eabi_attribute 24, 1
   8              		.eabi_attribute 25, 1
   9              		.eabi_attribute 26, 1
  10              		.eabi_attribute 30, 1
  11              		.eabi_attribute 34, 1
  12              		.eabi_attribute 18, 4
  13              		.thumb
  14              		.file	"Comp_1.c"
  15              		.text
  16              	.Ltext0:
  17              		.cfi_sections	.debug_frame
  18              		.section	.text.Comp_1_trimAdjust,"ax",%progbits
  19              		.align	2
  20              		.thumb
  21              		.thumb_func
  22              		.type	Comp_1_trimAdjust, %function
  23              	Comp_1_trimAdjust:
  24              	.LFB6:
  25              		.file 1 "Generated_Source\\PSoC5\\Comp_1.c"
   1:Generated_Source\PSoC5/Comp_1.c **** /*******************************************************************************
   2:Generated_Source\PSoC5/Comp_1.c **** * File Name: Comp_1.c
   3:Generated_Source\PSoC5/Comp_1.c **** * Version 2.0
   4:Generated_Source\PSoC5/Comp_1.c **** *
   5:Generated_Source\PSoC5/Comp_1.c **** * Description:
   6:Generated_Source\PSoC5/Comp_1.c **** *  This file provides the source code to the API for the Comparator component
   7:Generated_Source\PSoC5/Comp_1.c **** *
   8:Generated_Source\PSoC5/Comp_1.c **** * Note:
   9:Generated_Source\PSoC5/Comp_1.c **** *  None
  10:Generated_Source\PSoC5/Comp_1.c **** *
  11:Generated_Source\PSoC5/Comp_1.c **** ********************************************************************************
  12:Generated_Source\PSoC5/Comp_1.c **** * Copyright 2008-2012, Cypress Semiconductor Corporation.  All rights reserved.
  13:Generated_Source\PSoC5/Comp_1.c **** * You may use this file only in accordance with the license, terms, conditions, 
  14:Generated_Source\PSoC5/Comp_1.c **** * disclaimers, and limitations in the end user license agreement accompanying 
  15:Generated_Source\PSoC5/Comp_1.c **** * the software package with which this file was provided.
  16:Generated_Source\PSoC5/Comp_1.c **** *******************************************************************************/
  17:Generated_Source\PSoC5/Comp_1.c **** 
  18:Generated_Source\PSoC5/Comp_1.c **** #include "Comp_1.h"
  19:Generated_Source\PSoC5/Comp_1.c **** 
  20:Generated_Source\PSoC5/Comp_1.c **** uint8 Comp_1_initVar = 0u;
  21:Generated_Source\PSoC5/Comp_1.c **** 
  22:Generated_Source\PSoC5/Comp_1.c **** /* Internal functions definitoin */
  23:Generated_Source\PSoC5/Comp_1.c **** static void Comp_1_trimAdjust(uint8 nibble) ;
  24:Generated_Source\PSoC5/Comp_1.c **** 
  25:Generated_Source\PSoC5/Comp_1.c **** /* static Comp_1_backupStruct  Comp_1_backup; */
  26:Generated_Source\PSoC5/Comp_1.c **** #if (CY_PSOC5A)
  27:Generated_Source\PSoC5/Comp_1.c ****     static Comp_1_LOWPOWER_BACKUP_STRUCT  Comp_1_lowPowerBackup;
  28:Generated_Source\PSoC5/Comp_1.c **** #endif /* CY_PSOC5A */
  29:Generated_Source\PSoC5/Comp_1.c **** 
  30:Generated_Source\PSoC5/Comp_1.c **** /* variable to decide whether or not to restore the control register in 
  31:Generated_Source\PSoC5/Comp_1.c ****    Enable() API for PSoC5A only */
  32:Generated_Source\PSoC5/Comp_1.c **** #if (CY_PSOC5A)
ARM GAS  C:\Users\dph5ah\AppData\Local\Temp\ccYBbjKj.s 			page 2


  33:Generated_Source\PSoC5/Comp_1.c ****     static uint8 Comp_1_restoreReg = 0u;
  34:Generated_Source\PSoC5/Comp_1.c **** #endif /* CY_PSOC5A */
  35:Generated_Source\PSoC5/Comp_1.c **** 
  36:Generated_Source\PSoC5/Comp_1.c **** 
  37:Generated_Source\PSoC5/Comp_1.c **** /*******************************************************************************
  38:Generated_Source\PSoC5/Comp_1.c **** * Function Name: Comp_1_Init
  39:Generated_Source\PSoC5/Comp_1.c **** ********************************************************************************
  40:Generated_Source\PSoC5/Comp_1.c **** *
  41:Generated_Source\PSoC5/Comp_1.c **** * Summary:
  42:Generated_Source\PSoC5/Comp_1.c **** *  Initialize to the schematic state
  43:Generated_Source\PSoC5/Comp_1.c **** * 
  44:Generated_Source\PSoC5/Comp_1.c **** * Parameters:
  45:Generated_Source\PSoC5/Comp_1.c **** *  void
  46:Generated_Source\PSoC5/Comp_1.c **** *
  47:Generated_Source\PSoC5/Comp_1.c **** * Return:
  48:Generated_Source\PSoC5/Comp_1.c **** *  void
  49:Generated_Source\PSoC5/Comp_1.c **** *
  50:Generated_Source\PSoC5/Comp_1.c **** *******************************************************************************/
  51:Generated_Source\PSoC5/Comp_1.c **** void Comp_1_Init(void) 
  52:Generated_Source\PSoC5/Comp_1.c **** {
  53:Generated_Source\PSoC5/Comp_1.c ****     /* Set default speed/power */
  54:Generated_Source\PSoC5/Comp_1.c ****     Comp_1_SetSpeed(Comp_1_DEFAULT_SPEED);
  55:Generated_Source\PSoC5/Comp_1.c **** 
  56:Generated_Source\PSoC5/Comp_1.c ****     /* Set default Hysteresis */
  57:Generated_Source\PSoC5/Comp_1.c ****     #if ( Comp_1_DEFAULT_HYSTERESIS == 0u )
  58:Generated_Source\PSoC5/Comp_1.c ****         Comp_1_CR |= Comp_1_HYST_OFF;
  59:Generated_Source\PSoC5/Comp_1.c ****     #else
  60:Generated_Source\PSoC5/Comp_1.c ****         Comp_1_CR &= (uint8)(~Comp_1_HYST_OFF);
  61:Generated_Source\PSoC5/Comp_1.c ****     #endif /* Comp_1_DEFAULT_HYSTERESIS == 0u */
  62:Generated_Source\PSoC5/Comp_1.c ****     /* Power down override feature is not supported for PSoC5A. */
  63:Generated_Source\PSoC5/Comp_1.c ****     #if (CY_PSOC3 || CY_PSOC5LP)
  64:Generated_Source\PSoC5/Comp_1.c ****         /* Set default Power Down Override */
  65:Generated_Source\PSoC5/Comp_1.c ****         #if ( Comp_1_DEFAULT_PWRDWN_OVRD == 0u )
  66:Generated_Source\PSoC5/Comp_1.c ****             Comp_1_CR &= (uint8)(~Comp_1_PWRDWN_OVRD);
  67:Generated_Source\PSoC5/Comp_1.c ****         #else 
  68:Generated_Source\PSoC5/Comp_1.c ****             Comp_1_CR |= Comp_1_PWRDWN_OVRD;
  69:Generated_Source\PSoC5/Comp_1.c ****         #endif /* Comp_1_DEFAULT_PWRDWN_OVRD == 0u */
  70:Generated_Source\PSoC5/Comp_1.c ****     #endif /* CY_PSOC3 || CY_PSOC5LP */
  71:Generated_Source\PSoC5/Comp_1.c ****     
  72:Generated_Source\PSoC5/Comp_1.c ****     /* Set mux always on logic */
  73:Generated_Source\PSoC5/Comp_1.c ****     Comp_1_CR |= Comp_1_MX_AO;
  74:Generated_Source\PSoC5/Comp_1.c **** 
  75:Generated_Source\PSoC5/Comp_1.c ****     /* Set default sync */
  76:Generated_Source\PSoC5/Comp_1.c ****     Comp_1_CLK &= (uint8)(~Comp_1_SYNCCLK_MASK);
  77:Generated_Source\PSoC5/Comp_1.c ****     #if ( Comp_1_DEFAULT_BYPASS_SYNC == 0u )
  78:Generated_Source\PSoC5/Comp_1.c ****         Comp_1_CLK |= Comp_1_SYNC_CLK_EN;
  79:Generated_Source\PSoC5/Comp_1.c ****     #else
  80:Generated_Source\PSoC5/Comp_1.c ****         Comp_1_CLK |= Comp_1_BYPASS_SYNC;
  81:Generated_Source\PSoC5/Comp_1.c ****     #endif /* Comp_1_DEFAULT_BYPASS_SYNC == 0u */
  82:Generated_Source\PSoC5/Comp_1.c **** }
  83:Generated_Source\PSoC5/Comp_1.c **** 
  84:Generated_Source\PSoC5/Comp_1.c **** 
  85:Generated_Source\PSoC5/Comp_1.c **** /*******************************************************************************
  86:Generated_Source\PSoC5/Comp_1.c **** * Function Name: Comp_1_Enable
  87:Generated_Source\PSoC5/Comp_1.c **** ********************************************************************************
  88:Generated_Source\PSoC5/Comp_1.c **** *
  89:Generated_Source\PSoC5/Comp_1.c **** * Summary:
ARM GAS  C:\Users\dph5ah\AppData\Local\Temp\ccYBbjKj.s 			page 3


  90:Generated_Source\PSoC5/Comp_1.c **** *  Enable the Comparator
  91:Generated_Source\PSoC5/Comp_1.c **** * 
  92:Generated_Source\PSoC5/Comp_1.c **** * Parameters:
  93:Generated_Source\PSoC5/Comp_1.c **** *  void
  94:Generated_Source\PSoC5/Comp_1.c **** *
  95:Generated_Source\PSoC5/Comp_1.c **** * Return:
  96:Generated_Source\PSoC5/Comp_1.c **** *  void
  97:Generated_Source\PSoC5/Comp_1.c **** *
  98:Generated_Source\PSoC5/Comp_1.c **** *******************************************************************************/
  99:Generated_Source\PSoC5/Comp_1.c **** void Comp_1_Enable(void) 
 100:Generated_Source\PSoC5/Comp_1.c **** {
 101:Generated_Source\PSoC5/Comp_1.c ****     Comp_1_PWRMGR |= Comp_1_ACT_PWR_EN;
 102:Generated_Source\PSoC5/Comp_1.c ****     Comp_1_STBY_PWRMGR |= Comp_1_STBY_PWR_EN;
 103:Generated_Source\PSoC5/Comp_1.c ****      
 104:Generated_Source\PSoC5/Comp_1.c ****      /* This is to restore the value of register CR which is saved 
 105:Generated_Source\PSoC5/Comp_1.c ****     in prior to the modification in stop() API */
 106:Generated_Source\PSoC5/Comp_1.c ****     #if (CY_PSOC5A)
 107:Generated_Source\PSoC5/Comp_1.c ****         if(Comp_1_restoreReg == 1u)
 108:Generated_Source\PSoC5/Comp_1.c ****         {
 109:Generated_Source\PSoC5/Comp_1.c ****             Comp_1_CR = Comp_1_lowPowerBackup.compCRReg;
 110:Generated_Source\PSoC5/Comp_1.c **** 
 111:Generated_Source\PSoC5/Comp_1.c ****             /* Clear the flag */
 112:Generated_Source\PSoC5/Comp_1.c ****             Comp_1_restoreReg = 0u;
 113:Generated_Source\PSoC5/Comp_1.c ****         }
 114:Generated_Source\PSoC5/Comp_1.c ****     #endif /* CY_PSOC5A */
 115:Generated_Source\PSoC5/Comp_1.c **** }
 116:Generated_Source\PSoC5/Comp_1.c **** 
 117:Generated_Source\PSoC5/Comp_1.c **** 
 118:Generated_Source\PSoC5/Comp_1.c **** /*******************************************************************************
 119:Generated_Source\PSoC5/Comp_1.c **** * Function Name: Comp_1_Start
 120:Generated_Source\PSoC5/Comp_1.c **** ********************************************************************************
 121:Generated_Source\PSoC5/Comp_1.c **** *
 122:Generated_Source\PSoC5/Comp_1.c **** * Summary:
 123:Generated_Source\PSoC5/Comp_1.c **** *  The start function initializes the Analog Comparator with the default values.
 124:Generated_Source\PSoC5/Comp_1.c **** *
 125:Generated_Source\PSoC5/Comp_1.c **** * Parameters:
 126:Generated_Source\PSoC5/Comp_1.c **** *  void
 127:Generated_Source\PSoC5/Comp_1.c **** *
 128:Generated_Source\PSoC5/Comp_1.c **** * Return:
 129:Generated_Source\PSoC5/Comp_1.c **** *  void 
 130:Generated_Source\PSoC5/Comp_1.c **** *
 131:Generated_Source\PSoC5/Comp_1.c **** * Global variables:
 132:Generated_Source\PSoC5/Comp_1.c **** *  Comp_1_initVar: Is modified when this function is called for the 
 133:Generated_Source\PSoC5/Comp_1.c **** *   first time. Is used to ensure that initialization happens only once.
 134:Generated_Source\PSoC5/Comp_1.c **** *  
 135:Generated_Source\PSoC5/Comp_1.c **** *******************************************************************************/
 136:Generated_Source\PSoC5/Comp_1.c **** void Comp_1_Start(void) 
 137:Generated_Source\PSoC5/Comp_1.c **** {
 138:Generated_Source\PSoC5/Comp_1.c **** 
 139:Generated_Source\PSoC5/Comp_1.c ****     if ( Comp_1_initVar == 0u )
 140:Generated_Source\PSoC5/Comp_1.c ****     {
 141:Generated_Source\PSoC5/Comp_1.c ****         Comp_1_Init();
 142:Generated_Source\PSoC5/Comp_1.c ****         
 143:Generated_Source\PSoC5/Comp_1.c ****         Comp_1_initVar = 1u;
 144:Generated_Source\PSoC5/Comp_1.c ****     }   
 145:Generated_Source\PSoC5/Comp_1.c **** 
 146:Generated_Source\PSoC5/Comp_1.c ****     /* Enable power to comparator */
ARM GAS  C:\Users\dph5ah\AppData\Local\Temp\ccYBbjKj.s 			page 4


 147:Generated_Source\PSoC5/Comp_1.c ****     Comp_1_Enable();    
 148:Generated_Source\PSoC5/Comp_1.c **** }
 149:Generated_Source\PSoC5/Comp_1.c **** 
 150:Generated_Source\PSoC5/Comp_1.c **** 
 151:Generated_Source\PSoC5/Comp_1.c **** /*******************************************************************************
 152:Generated_Source\PSoC5/Comp_1.c **** * Function Name: Comp_1_Stop
 153:Generated_Source\PSoC5/Comp_1.c **** ********************************************************************************
 154:Generated_Source\PSoC5/Comp_1.c **** *
 155:Generated_Source\PSoC5/Comp_1.c **** * Summary:
 156:Generated_Source\PSoC5/Comp_1.c **** *  Powers down amplifier to lowest power state.
 157:Generated_Source\PSoC5/Comp_1.c **** *
 158:Generated_Source\PSoC5/Comp_1.c **** * Parameters:
 159:Generated_Source\PSoC5/Comp_1.c **** *  void
 160:Generated_Source\PSoC5/Comp_1.c **** *
 161:Generated_Source\PSoC5/Comp_1.c **** * Return:
 162:Generated_Source\PSoC5/Comp_1.c **** *  void
 163:Generated_Source\PSoC5/Comp_1.c **** *
 164:Generated_Source\PSoC5/Comp_1.c **** *******************************************************************************/
 165:Generated_Source\PSoC5/Comp_1.c **** void Comp_1_Stop(void) 
 166:Generated_Source\PSoC5/Comp_1.c **** {
 167:Generated_Source\PSoC5/Comp_1.c ****     /* Disable power to comparator */
 168:Generated_Source\PSoC5/Comp_1.c ****     Comp_1_PWRMGR &= (uint8)(~Comp_1_ACT_PWR_EN);
 169:Generated_Source\PSoC5/Comp_1.c ****     Comp_1_STBY_PWRMGR &= (uint8)(~Comp_1_STBY_PWR_EN);
 170:Generated_Source\PSoC5/Comp_1.c ****     
 171:Generated_Source\PSoC5/Comp_1.c ****     #if (CY_PSOC5A)
 172:Generated_Source\PSoC5/Comp_1.c ****         /* Enable the variable */
 173:Generated_Source\PSoC5/Comp_1.c ****         Comp_1_restoreReg = 1u;
 174:Generated_Source\PSoC5/Comp_1.c **** 
 175:Generated_Source\PSoC5/Comp_1.c ****         /* Save the control register before clearing it */
 176:Generated_Source\PSoC5/Comp_1.c ****         Comp_1_lowPowerBackup.compCRReg = Comp_1_CR;
 177:Generated_Source\PSoC5/Comp_1.c ****         Comp_1_CR = Comp_1_COMP_REG_CLR;
 178:Generated_Source\PSoC5/Comp_1.c ****     #endif /* CY_PSOC5A */
 179:Generated_Source\PSoC5/Comp_1.c **** }
 180:Generated_Source\PSoC5/Comp_1.c **** 
 181:Generated_Source\PSoC5/Comp_1.c **** 
 182:Generated_Source\PSoC5/Comp_1.c **** /*******************************************************************************
 183:Generated_Source\PSoC5/Comp_1.c **** * Function Name: Comp_1_SetSpeed
 184:Generated_Source\PSoC5/Comp_1.c **** ********************************************************************************
 185:Generated_Source\PSoC5/Comp_1.c **** *
 186:Generated_Source\PSoC5/Comp_1.c **** * Summary:
 187:Generated_Source\PSoC5/Comp_1.c **** *  This function sets the speed of the Analog Comparator. The faster the speed
 188:Generated_Source\PSoC5/Comp_1.c **** *  the more power that is used.
 189:Generated_Source\PSoC5/Comp_1.c **** *
 190:Generated_Source\PSoC5/Comp_1.c **** * Parameters:
 191:Generated_Source\PSoC5/Comp_1.c **** *  speed: (uint8) Sets operation mode of Comparator
 192:Generated_Source\PSoC5/Comp_1.c **** *
 193:Generated_Source\PSoC5/Comp_1.c **** * Return:
 194:Generated_Source\PSoC5/Comp_1.c **** *  void
 195:Generated_Source\PSoC5/Comp_1.c **** *
 196:Generated_Source\PSoC5/Comp_1.c **** *******************************************************************************/
 197:Generated_Source\PSoC5/Comp_1.c **** void Comp_1_SetSpeed(uint8 speed) 
 198:Generated_Source\PSoC5/Comp_1.c **** {
 199:Generated_Source\PSoC5/Comp_1.c ****     /* Clear and Set power level */    
 200:Generated_Source\PSoC5/Comp_1.c ****     Comp_1_CR = (Comp_1_CR & (uint8)(~Comp_1_PWR_MODE_MASK)) |
 201:Generated_Source\PSoC5/Comp_1.c ****                            (speed & Comp_1_PWR_MODE_MASK);
 202:Generated_Source\PSoC5/Comp_1.c **** 
 203:Generated_Source\PSoC5/Comp_1.c ****     /* Set trim value for high speed comparator */
ARM GAS  C:\Users\dph5ah\AppData\Local\Temp\ccYBbjKj.s 			page 5


 204:Generated_Source\PSoC5/Comp_1.c ****     if(speed == Comp_1_HIGHSPEED)
 205:Generated_Source\PSoC5/Comp_1.c ****     {
 206:Generated_Source\PSoC5/Comp_1.c ****         /* PSoC5A */
 207:Generated_Source\PSoC5/Comp_1.c ****         #if (CY_PSOC5A)
 208:Generated_Source\PSoC5/Comp_1.c ****             Comp_1_TR = Comp_1_HS_TRIM_TR0;
 209:Generated_Source\PSoC5/Comp_1.c ****         #endif /* CY_PSOC5A */
 210:Generated_Source\PSoC5/Comp_1.c ****         
 211:Generated_Source\PSoC5/Comp_1.c ****         /* PSoC3, PSoC5LP or later */
 212:Generated_Source\PSoC5/Comp_1.c ****         #if (CY_PSOC3 || CY_PSOC5LP) 
 213:Generated_Source\PSoC5/Comp_1.c ****             Comp_1_TR0 = Comp_1_HS_TRIM_TR0;
 214:Generated_Source\PSoC5/Comp_1.c ****             Comp_1_TR1 = Comp_1_HS_TRIM_TR1;
 215:Generated_Source\PSoC5/Comp_1.c ****         #endif /* CY_PSOC3 || CY_PSOC5LP */
 216:Generated_Source\PSoC5/Comp_1.c ****     }
 217:Generated_Source\PSoC5/Comp_1.c ****     else
 218:Generated_Source\PSoC5/Comp_1.c ****     {
 219:Generated_Source\PSoC5/Comp_1.c ****     /* PSoC5A */
 220:Generated_Source\PSoC5/Comp_1.c ****         #if (CY_PSOC5A)
 221:Generated_Source\PSoC5/Comp_1.c ****             Comp_1_TR = Comp_1_LS_TRIM_TR0;
 222:Generated_Source\PSoC5/Comp_1.c ****         #endif /* CY_PSOC5A */
 223:Generated_Source\PSoC5/Comp_1.c ****         
 224:Generated_Source\PSoC5/Comp_1.c ****         /* PSoC3, PSoC5LP or later */
 225:Generated_Source\PSoC5/Comp_1.c ****         #if (CY_PSOC3 || CY_PSOC5LP) 
 226:Generated_Source\PSoC5/Comp_1.c ****             Comp_1_TR0 = Comp_1_LS_TRIM_TR0;
 227:Generated_Source\PSoC5/Comp_1.c ****             Comp_1_TR1 = Comp_1_LS_TRIM_TR1;
 228:Generated_Source\PSoC5/Comp_1.c ****         #endif /* CY_PSOC3 || CY_PSOC5LP */
 229:Generated_Source\PSoC5/Comp_1.c ****     }
 230:Generated_Source\PSoC5/Comp_1.c **** 
 231:Generated_Source\PSoC5/Comp_1.c **** }
 232:Generated_Source\PSoC5/Comp_1.c **** 
 233:Generated_Source\PSoC5/Comp_1.c **** 
 234:Generated_Source\PSoC5/Comp_1.c **** /*******************************************************************************
 235:Generated_Source\PSoC5/Comp_1.c **** * Function Name: Comp_1_GetCompare
 236:Generated_Source\PSoC5/Comp_1.c **** ********************************************************************************
 237:Generated_Source\PSoC5/Comp_1.c **** *
 238:Generated_Source\PSoC5/Comp_1.c **** * Summary:
 239:Generated_Source\PSoC5/Comp_1.c **** *  This function returns the comparator output value.
 240:Generated_Source\PSoC5/Comp_1.c **** *  This value is not affected by the Polarity parameter.
 241:Generated_Source\PSoC5/Comp_1.c **** *  This valuea lways reflects a noninverted state.
 242:Generated_Source\PSoC5/Comp_1.c **** *
 243:Generated_Source\PSoC5/Comp_1.c **** * Parameters:
 244:Generated_Source\PSoC5/Comp_1.c **** *   None
 245:Generated_Source\PSoC5/Comp_1.c **** *
 246:Generated_Source\PSoC5/Comp_1.c **** * Return:
 247:Generated_Source\PSoC5/Comp_1.c **** *  (uint8)  0     - if Pos_Input less than Neg_input
 248:Generated_Source\PSoC5/Comp_1.c **** *           non 0 - if Pos_Input greater than Neg_input.
 249:Generated_Source\PSoC5/Comp_1.c **** *
 250:Generated_Source\PSoC5/Comp_1.c **** *******************************************************************************/
 251:Generated_Source\PSoC5/Comp_1.c **** uint8 Comp_1_GetCompare(void) 
 252:Generated_Source\PSoC5/Comp_1.c **** {
 253:Generated_Source\PSoC5/Comp_1.c ****     return( Comp_1_WRK & Comp_1_CMP_OUT_MASK);
 254:Generated_Source\PSoC5/Comp_1.c **** }
 255:Generated_Source\PSoC5/Comp_1.c **** 
 256:Generated_Source\PSoC5/Comp_1.c **** 
 257:Generated_Source\PSoC5/Comp_1.c **** /*******************************************************************************
 258:Generated_Source\PSoC5/Comp_1.c **** * Function Name: Comp_1_trimAdjust
 259:Generated_Source\PSoC5/Comp_1.c **** ********************************************************************************
 260:Generated_Source\PSoC5/Comp_1.c **** *
ARM GAS  C:\Users\dph5ah\AppData\Local\Temp\ccYBbjKj.s 			page 6


 261:Generated_Source\PSoC5/Comp_1.c **** * Summary:
 262:Generated_Source\PSoC5/Comp_1.c **** *  This function adjusts the value in the low nibble/high nibble of the Analog 
 263:Generated_Source\PSoC5/Comp_1.c **** *  Comparator trim register
 264:Generated_Source\PSoC5/Comp_1.c **** *
 265:Generated_Source\PSoC5/Comp_1.c **** * Parameters:  
 266:Generated_Source\PSoC5/Comp_1.c **** *  nibble:
 267:Generated_Source\PSoC5/Comp_1.c **** *      0 -- adjusts the value in the low nibble
 268:Generated_Source\PSoC5/Comp_1.c **** *      1 -- adjusts the value in the high nibble
 269:Generated_Source\PSoC5/Comp_1.c **** *
 270:Generated_Source\PSoC5/Comp_1.c **** * Return:
 271:Generated_Source\PSoC5/Comp_1.c **** *  None
 272:Generated_Source\PSoC5/Comp_1.c **** *
 273:Generated_Source\PSoC5/Comp_1.c **** * Theory: 
 274:Generated_Source\PSoC5/Comp_1.c **** *  Function assumes comparator block is setup for trim adjust.
 275:Generated_Source\PSoC5/Comp_1.c **** *  Intended to be called from Comp_ZeroCal()
 276:Generated_Source\PSoC5/Comp_1.c **** * 
 277:Generated_Source\PSoC5/Comp_1.c **** * Side Effects:
 278:Generated_Source\PSoC5/Comp_1.c **** *  Routine uses a course 1ms delay following each trim adjustment to allow 
 279:Generated_Source\PSoC5/Comp_1.c **** *  the comparator output to respond.
 280:Generated_Source\PSoC5/Comp_1.c **** *
 281:Generated_Source\PSoC5/Comp_1.c **** *******************************************************************************/
 282:Generated_Source\PSoC5/Comp_1.c **** static void Comp_1_trimAdjust(uint8 nibble) 
 283:Generated_Source\PSoC5/Comp_1.c **** {
  26              		.loc 1 283 0
  27              		.cfi_startproc
  28              		@ args = 0, pretend = 0, frame = 0
  29              		@ frame_needed = 0, uses_anonymous_args = 0
  30              	.LVL0:
  31 0000 F8B5     		push	{r3, r4, r5, r6, r7, lr}
  32              		.cfi_def_cfa_offset 24
  33              		.cfi_offset 3, -24
  34              		.cfi_offset 4, -20
  35              		.cfi_offset 5, -16
  36              		.cfi_offset 6, -12
  37              		.cfi_offset 7, -8
  38              		.cfi_offset 14, -4
 284:Generated_Source\PSoC5/Comp_1.c ****     uint8 trimCnt, trimCntMax;
 285:Generated_Source\PSoC5/Comp_1.c ****     uint8 cmpState;   
 286:Generated_Source\PSoC5/Comp_1.c **** 
 287:Generated_Source\PSoC5/Comp_1.c ****     /* get current state of comparator output */
 288:Generated_Source\PSoC5/Comp_1.c ****     cmpState = Comp_1_WRK & Comp_1_CMP_OUT_MASK;
  39              		.loc 1 288 0
  40 0002 194B     		ldr	r3, .L12
  41 0004 1D78     		ldrb	r5, [r3]	@ zero_extendqisi2
  42 0006 05F00105 		and	r5, r5, #1
  43              	.LVL1:
 289:Generated_Source\PSoC5/Comp_1.c ****     
 290:Generated_Source\PSoC5/Comp_1.c ****     if (nibble == 0u)
  44              		.loc 1 290 0
  45 000a 0646     		mov	r6, r0
  46 000c 30B9     		cbnz	r0, .L2
 291:Generated_Source\PSoC5/Comp_1.c ****     {    
 292:Generated_Source\PSoC5/Comp_1.c ****         /* if comparator output is high, negative offset adjust is required */
 293:Generated_Source\PSoC5/Comp_1.c ****         if ( cmpState != 0u )
  47              		.loc 1 293 0
  48 000e 5DB1     		cbz	r5, .L3
 294:Generated_Source\PSoC5/Comp_1.c ****         {
ARM GAS  C:\Users\dph5ah\AppData\Local\Temp\ccYBbjKj.s 			page 7


 295:Generated_Source\PSoC5/Comp_1.c ****             /* PSoC5A */
 296:Generated_Source\PSoC5/Comp_1.c ****             #if (CY_PSOC5A)
 297:Generated_Source\PSoC5/Comp_1.c ****                 Comp_1_TR |= Comp_1_CMP_TRIM1_DIR;
 298:Generated_Source\PSoC5/Comp_1.c ****             #endif /* CY_PSOC5A */
 299:Generated_Source\PSoC5/Comp_1.c ****             
 300:Generated_Source\PSoC5/Comp_1.c ****             /* PSoC3, PSoC5LP or later */
 301:Generated_Source\PSoC5/Comp_1.c ****             #if (CY_PSOC3 || CY_PSOC5LP)
 302:Generated_Source\PSoC5/Comp_1.c ****                 Comp_1_TR0 |= Comp_1_CMP_TR0_DIR;
  49              		.loc 1 302 0
  50 0010 164A     		ldr	r2, .L12+4
  51 0012 1378     		ldrb	r3, [r2]	@ zero_extendqisi2
  52 0014 43F01003 		orr	r3, r3, #16
  53 0018 1370     		strb	r3, [r2]
  54 001a 05E0     		b	.L3
  55              	.L2:
 303:Generated_Source\PSoC5/Comp_1.c ****             #endif /* CY_PSOC3 || CY_PSOC5LP */
 304:Generated_Source\PSoC5/Comp_1.c ****         }
 305:Generated_Source\PSoC5/Comp_1.c ****     }
 306:Generated_Source\PSoC5/Comp_1.c ****     else
 307:Generated_Source\PSoC5/Comp_1.c ****     {
 308:Generated_Source\PSoC5/Comp_1.c ****         /* if comparator output is low, positive offset adjust is required */
 309:Generated_Source\PSoC5/Comp_1.c ****         if ( cmpState == 0u )
  56              		.loc 1 309 0
  57 001c 25B9     		cbnz	r5, .L3
 310:Generated_Source\PSoC5/Comp_1.c ****         {
 311:Generated_Source\PSoC5/Comp_1.c ****             /* PSoC5A */
 312:Generated_Source\PSoC5/Comp_1.c ****             #if (CY_PSOC5A)
 313:Generated_Source\PSoC5/Comp_1.c ****                 Comp_1_TR |= Comp_1_CMP_TRIM2_DIR; 
 314:Generated_Source\PSoC5/Comp_1.c ****             #endif /* CY_PSOC5A */
 315:Generated_Source\PSoC5/Comp_1.c ****             
 316:Generated_Source\PSoC5/Comp_1.c ****             /* PSoC3, PSoC5LP or later */
 317:Generated_Source\PSoC5/Comp_1.c ****             #if (CY_PSOC3 || CY_PSOC5LP)
 318:Generated_Source\PSoC5/Comp_1.c ****                 Comp_1_TR1 |= Comp_1_CMP_TR1_DIR;
  58              		.loc 1 318 0
  59 001e 144A     		ldr	r2, .L12+8
  60 0020 1378     		ldrb	r3, [r2]	@ zero_extendqisi2
  61 0022 43F01003 		orr	r3, r3, #16
  62 0026 1370     		strb	r3, [r2]
  63              	.L3:
 319:Generated_Source\PSoC5/Comp_1.c ****             #endif /* CY_PSOC3 || CY_PSOC5LP */
 320:Generated_Source\PSoC5/Comp_1.c ****         }
 321:Generated_Source\PSoC5/Comp_1.c ****     }
 322:Generated_Source\PSoC5/Comp_1.c **** 
 323:Generated_Source\PSoC5/Comp_1.c ****     /* Increment trim value until compare output changes state */
 324:Generated_Source\PSoC5/Comp_1.c **** 	
 325:Generated_Source\PSoC5/Comp_1.c ****     /* PSoC5A */
 326:Generated_Source\PSoC5/Comp_1.c **** 	#if (CY_PSOC5A)
 327:Generated_Source\PSoC5/Comp_1.c **** 	    trimCntMax = 7u;
 328:Generated_Source\PSoC5/Comp_1.c ****     #endif
 329:Generated_Source\PSoC5/Comp_1.c **** 	
 330:Generated_Source\PSoC5/Comp_1.c **** 	/* PSoC3, PSoC5LP or later */
 331:Generated_Source\PSoC5/Comp_1.c **** 	#if (CY_PSOC3 || CY_PSOC5LP)
 332:Generated_Source\PSoC5/Comp_1.c ****     	if(nibble == 0u)
  64              		.loc 1 332 0
  65 0028 0EB9     		cbnz	r6, .L10
 333:Generated_Source\PSoC5/Comp_1.c ****     	{
 334:Generated_Source\PSoC5/Comp_1.c ****     		trimCntMax = 15u;
ARM GAS  C:\Users\dph5ah\AppData\Local\Temp\ccYBbjKj.s 			page 8


  66              		.loc 1 334 0
  67 002a 0F27     		movs	r7, #15
  68 002c 00E0     		b	.L4
  69              	.L10:
 335:Generated_Source\PSoC5/Comp_1.c ****     	}
 336:Generated_Source\PSoC5/Comp_1.c ****     	else
 337:Generated_Source\PSoC5/Comp_1.c ****     	{
 338:Generated_Source\PSoC5/Comp_1.c ****     		trimCntMax = 7u;
  70              		.loc 1 338 0
  71 002e 0727     		movs	r7, #7
  72              	.L4:
  73              	.LVL2:
 339:Generated_Source\PSoC5/Comp_1.c ****     	}
 340:Generated_Source\PSoC5/Comp_1.c **** 	#endif
 341:Generated_Source\PSoC5/Comp_1.c **** 	
 342:Generated_Source\PSoC5/Comp_1.c ****     for ( trimCnt = 0u; trimCnt < trimCntMax; trimCnt++ )
  74              		.loc 1 342 0
  75 0030 0024     		movs	r4, #0
  76 0032 16E0     		b	.L5
  77              	.LVL3:
  78              	.L9:
 343:Generated_Source\PSoC5/Comp_1.c **** 	{
 344:Generated_Source\PSoC5/Comp_1.c ****         if (nibble == 0u)
  79              		.loc 1 344 0
  80 0034 2EB9     		cbnz	r6, .L6
 345:Generated_Source\PSoC5/Comp_1.c ****         {
 346:Generated_Source\PSoC5/Comp_1.c ****             /* PSoC5A */
 347:Generated_Source\PSoC5/Comp_1.c ****             #if (CY_PSOC5A)
 348:Generated_Source\PSoC5/Comp_1.c ****                 Comp_1_TR += 1u;
 349:Generated_Source\PSoC5/Comp_1.c ****             #endif /* CY_PSOC5A */
 350:Generated_Source\PSoC5/Comp_1.c ****             
 351:Generated_Source\PSoC5/Comp_1.c ****             /* PSoC3, PSoC5LP or later */
 352:Generated_Source\PSoC5/Comp_1.c ****             #if (CY_PSOC3 || CY_PSOC5LP)
 353:Generated_Source\PSoC5/Comp_1.c ****                 Comp_1_TR0 += 1u;
  81              		.loc 1 353 0
  82 0036 0D4A     		ldr	r2, .L12+4
  83 0038 1378     		ldrb	r3, [r2]	@ zero_extendqisi2
  84 003a 0133     		adds	r3, r3, #1
  85 003c DBB2     		uxtb	r3, r3
  86 003e 1370     		strb	r3, [r2]
  87 0040 04E0     		b	.L7
  88              	.L6:
 354:Generated_Source\PSoC5/Comp_1.c ****             #endif /* CY_PSOC3 || CY_PSOC5LP */
 355:Generated_Source\PSoC5/Comp_1.c ****         }
 356:Generated_Source\PSoC5/Comp_1.c ****         else
 357:Generated_Source\PSoC5/Comp_1.c ****         {
 358:Generated_Source\PSoC5/Comp_1.c ****             /* PSoC5A */
 359:Generated_Source\PSoC5/Comp_1.c ****             #if (CY_PSOC5A)
 360:Generated_Source\PSoC5/Comp_1.c ****                 Comp_1_TR += 0x10u;
 361:Generated_Source\PSoC5/Comp_1.c ****             #endif /* CY_PSOC5A */
 362:Generated_Source\PSoC5/Comp_1.c ****             
 363:Generated_Source\PSoC5/Comp_1.c ****             /* PSoC3, PSoC5LP or later */
 364:Generated_Source\PSoC5/Comp_1.c ****             #if (CY_PSOC3 || CY_PSOC5LP)
 365:Generated_Source\PSoC5/Comp_1.c ****                 Comp_1_TR1 += 1u;
  89              		.loc 1 365 0
  90 0042 0B4A     		ldr	r2, .L12+8
  91 0044 1378     		ldrb	r3, [r2]	@ zero_extendqisi2
ARM GAS  C:\Users\dph5ah\AppData\Local\Temp\ccYBbjKj.s 			page 9


  92 0046 0133     		adds	r3, r3, #1
  93 0048 DBB2     		uxtb	r3, r3
  94 004a 1370     		strb	r3, [r2]
  95              	.L7:
 366:Generated_Source\PSoC5/Comp_1.c ****             #endif /* CY_PSOC3 || CY_PSOC5LP */
 367:Generated_Source\PSoC5/Comp_1.c ****         }
 368:Generated_Source\PSoC5/Comp_1.c ****         
 369:Generated_Source\PSoC5/Comp_1.c ****         CyDelayUs(10u);
  96              		.loc 1 369 0
  97 004c 0A20     		movs	r0, #10
  98 004e FFF7FEFF 		bl	CyDelayUs
  99              	.LVL4:
 370:Generated_Source\PSoC5/Comp_1.c ****         
 371:Generated_Source\PSoC5/Comp_1.c ****         /* Check for change in comparator output */
 372:Generated_Source\PSoC5/Comp_1.c ****         if ((Comp_1_WRK & Comp_1_CMP_OUT_MASK) != cmpState)
 100              		.loc 1 372 0
 101 0052 054B     		ldr	r3, .L12
 102 0054 1B78     		ldrb	r3, [r3]	@ zero_extendqisi2
 103 0056 03F00103 		and	r3, r3, #1
 104 005a AB42     		cmp	r3, r5
 105 005c 03D1     		bne	.L1
 342:Generated_Source\PSoC5/Comp_1.c **** 	{
 106              		.loc 1 342 0 discriminator 2
 107 005e 0134     		adds	r4, r4, #1
 108              	.LVL5:
 109 0060 E4B2     		uxtb	r4, r4
 110              	.LVL6:
 111              	.L5:
 342:Generated_Source\PSoC5/Comp_1.c **** 	{
 112              		.loc 1 342 0 is_stmt 0 discriminator 1
 113 0062 BC42     		cmp	r4, r7
 114 0064 E6D3     		bcc	.L9
 115              	.L1:
 116 0066 F8BD     		pop	{r3, r4, r5, r6, r7, pc}
 117              	.LVL7:
 118              	.L13:
 119              		.align	2
 120              	.L12:
 121 0068 965B0040 		.word	1073765270
 122 006c 30460040 		.word	1073759792
 123 0070 31460040 		.word	1073759793
 124              		.cfi_endproc
 125              	.LFE6:
 126              		.size	Comp_1_trimAdjust, .-Comp_1_trimAdjust
 127              		.section	.text.Comp_1_Enable,"ax",%progbits
 128              		.align	2
 129              		.global	Comp_1_Enable
 130              		.thumb
 131              		.thumb_func
 132              		.type	Comp_1_Enable, %function
 133              	Comp_1_Enable:
 134              	.LFB1:
 100:Generated_Source\PSoC5/Comp_1.c ****     Comp_1_PWRMGR |= Comp_1_ACT_PWR_EN;
 135              		.loc 1 100 0 is_stmt 1
 136              		.cfi_startproc
 137              		@ args = 0, pretend = 0, frame = 0
 138              		@ frame_needed = 0, uses_anonymous_args = 0
ARM GAS  C:\Users\dph5ah\AppData\Local\Temp\ccYBbjKj.s 			page 10


 139              		@ link register save eliminated.
 101:Generated_Source\PSoC5/Comp_1.c ****     Comp_1_STBY_PWRMGR |= Comp_1_STBY_PWR_EN;
 140              		.loc 1 101 0
 141 0000 054A     		ldr	r2, .L15
 142 0002 1378     		ldrb	r3, [r2]	@ zero_extendqisi2
 143 0004 43F00103 		orr	r3, r3, #1
 144 0008 1370     		strb	r3, [r2]
 102:Generated_Source\PSoC5/Comp_1.c ****      
 145              		.loc 1 102 0
 146 000a 1032     		adds	r2, r2, #16
 147 000c 1378     		ldrb	r3, [r2]	@ zero_extendqisi2
 148 000e 43F00103 		orr	r3, r3, #1
 149 0012 1370     		strb	r3, [r2]
 150 0014 7047     		bx	lr
 151              	.L16:
 152 0016 00BF     		.align	2
 153              	.L15:
 154 0018 A7430040 		.word	1073759143
 155              		.cfi_endproc
 156              	.LFE1:
 157              		.size	Comp_1_Enable, .-Comp_1_Enable
 158              		.section	.text.Comp_1_Stop,"ax",%progbits
 159              		.align	2
 160              		.global	Comp_1_Stop
 161              		.thumb
 162              		.thumb_func
 163              		.type	Comp_1_Stop, %function
 164              	Comp_1_Stop:
 165              	.LFB3:
 166:Generated_Source\PSoC5/Comp_1.c ****     /* Disable power to comparator */
 166              		.loc 1 166 0
 167              		.cfi_startproc
 168              		@ args = 0, pretend = 0, frame = 0
 169              		@ frame_needed = 0, uses_anonymous_args = 0
 170              		@ link register save eliminated.
 168:Generated_Source\PSoC5/Comp_1.c ****     Comp_1_STBY_PWRMGR &= (uint8)(~Comp_1_STBY_PWR_EN);
 171              		.loc 1 168 0
 172 0000 054A     		ldr	r2, .L18
 173 0002 1378     		ldrb	r3, [r2]	@ zero_extendqisi2
 174 0004 03F0FE03 		and	r3, r3, #254
 175 0008 1370     		strb	r3, [r2]
 169:Generated_Source\PSoC5/Comp_1.c ****     
 176              		.loc 1 169 0
 177 000a 1032     		adds	r2, r2, #16
 178 000c 1378     		ldrb	r3, [r2]	@ zero_extendqisi2
 179 000e 03F0FE03 		and	r3, r3, #254
 180 0012 1370     		strb	r3, [r2]
 181 0014 7047     		bx	lr
 182              	.L19:
 183 0016 00BF     		.align	2
 184              	.L18:
 185 0018 A7430040 		.word	1073759143
 186              		.cfi_endproc
 187              	.LFE3:
 188              		.size	Comp_1_Stop, .-Comp_1_Stop
 189              		.section	.text.Comp_1_SetSpeed,"ax",%progbits
 190              		.align	2
ARM GAS  C:\Users\dph5ah\AppData\Local\Temp\ccYBbjKj.s 			page 11


 191              		.global	Comp_1_SetSpeed
 192              		.thumb
 193              		.thumb_func
 194              		.type	Comp_1_SetSpeed, %function
 195              	Comp_1_SetSpeed:
 196              	.LFB4:
 198:Generated_Source\PSoC5/Comp_1.c ****     /* Clear and Set power level */    
 197              		.loc 1 198 0
 198              		.cfi_startproc
 199              		@ args = 0, pretend = 0, frame = 0
 200              		@ frame_needed = 0, uses_anonymous_args = 0
 201              		@ link register save eliminated.
 202              	.LVL8:
 200:Generated_Source\PSoC5/Comp_1.c ****                            (speed & Comp_1_PWR_MODE_MASK);
 203              		.loc 1 200 0
 204 0000 0F49     		ldr	r1, .L23
 205 0002 0B78     		ldrb	r3, [r1]	@ zero_extendqisi2
 206 0004 03F0FC02 		and	r2, r3, #252
 207 0008 00F00303 		and	r3, r0, #3
 208 000c 1343     		orrs	r3, r3, r2
 209 000e 0B70     		strb	r3, [r1]
 204:Generated_Source\PSoC5/Comp_1.c ****     {
 210              		.loc 1 204 0
 211 0010 0128     		cmp	r0, #1
 212 0012 0AD1     		bne	.L21
 213:Generated_Source\PSoC5/Comp_1.c ****             Comp_1_TR1 = Comp_1_HS_TRIM_TR1;
 213              		.loc 1 213 0
 214 0014 0B4B     		ldr	r3, .L23+4
 215 0016 1B78     		ldrb	r3, [r3]	@ zero_extendqisi2
 216 0018 DBB2     		uxtb	r3, r3
 217 001a 0B4A     		ldr	r2, .L23+8
 218 001c 1370     		strb	r3, [r2]
 214:Generated_Source\PSoC5/Comp_1.c ****         #endif /* CY_PSOC3 || CY_PSOC5LP */
 219              		.loc 1 214 0
 220 001e 0B4B     		ldr	r3, .L23+12
 221 0020 1B78     		ldrb	r3, [r3]	@ zero_extendqisi2
 222 0022 DBB2     		uxtb	r3, r3
 223 0024 0132     		adds	r2, r2, #1
 224 0026 1370     		strb	r3, [r2]
 225 0028 7047     		bx	lr
 226              	.L21:
 226:Generated_Source\PSoC5/Comp_1.c ****             Comp_1_TR1 = Comp_1_LS_TRIM_TR1;
 227              		.loc 1 226 0
 228 002a 094B     		ldr	r3, .L23+16
 229 002c 1B78     		ldrb	r3, [r3]	@ zero_extendqisi2
 230 002e DBB2     		uxtb	r3, r3
 231 0030 054A     		ldr	r2, .L23+8
 232 0032 1370     		strb	r3, [r2]
 227:Generated_Source\PSoC5/Comp_1.c ****         #endif /* CY_PSOC3 || CY_PSOC5LP */
 233              		.loc 1 227 0
 234 0034 074B     		ldr	r3, .L23+20
 235 0036 1B78     		ldrb	r3, [r3]	@ zero_extendqisi2
 236 0038 DBB2     		uxtb	r3, r3
 237 003a 0132     		adds	r2, r2, #1
 238 003c 1370     		strb	r3, [r2]
 239 003e 7047     		bx	lr
 240              	.L24:
ARM GAS  C:\Users\dph5ah\AppData\Local\Temp\ccYBbjKj.s 			page 12


 241              		.align	2
 242              	.L23:
 243 0040 40580040 		.word	1073764416
 244 0044 10010049 		.word	1224737040
 245 0048 30460040 		.word	1073759792
 246 004c 14010049 		.word	1224737044
 247 0050 AD010049 		.word	1224737197
 248 0054 B5010049 		.word	1224737205
 249              		.cfi_endproc
 250              	.LFE4:
 251              		.size	Comp_1_SetSpeed, .-Comp_1_SetSpeed
 252              		.section	.text.Comp_1_Init,"ax",%progbits
 253              		.align	2
 254              		.global	Comp_1_Init
 255              		.thumb
 256              		.thumb_func
 257              		.type	Comp_1_Init, %function
 258              	Comp_1_Init:
 259              	.LFB0:
  52:Generated_Source\PSoC5/Comp_1.c ****     /* Set default speed/power */
 260              		.loc 1 52 0
 261              		.cfi_startproc
 262              		@ args = 0, pretend = 0, frame = 0
 263              		@ frame_needed = 0, uses_anonymous_args = 0
 264 0000 08B5     		push	{r3, lr}
 265              		.cfi_def_cfa_offset 8
 266              		.cfi_offset 3, -8
 267              		.cfi_offset 14, -4
  54:Generated_Source\PSoC5/Comp_1.c **** 
 268              		.loc 1 54 0
 269 0002 0120     		movs	r0, #1
 270 0004 FFF7FEFF 		bl	Comp_1_SetSpeed
 271              	.LVL9:
  60:Generated_Source\PSoC5/Comp_1.c ****     #endif /* Comp_1_DEFAULT_HYSTERESIS == 0u */
 272              		.loc 1 60 0
 273 0008 0B4B     		ldr	r3, .L27
 274 000a 1A78     		ldrb	r2, [r3]	@ zero_extendqisi2
 275 000c 02F0DF02 		and	r2, r2, #223
 276 0010 1A70     		strb	r2, [r3]
  66:Generated_Source\PSoC5/Comp_1.c ****         #else 
 277              		.loc 1 66 0
 278 0012 1A78     		ldrb	r2, [r3]	@ zero_extendqisi2
 279 0014 02F0FB02 		and	r2, r2, #251
 280 0018 1A70     		strb	r2, [r3]
  73:Generated_Source\PSoC5/Comp_1.c **** 
 281              		.loc 1 73 0
 282 001a 1A78     		ldrb	r2, [r3]	@ zero_extendqisi2
 283 001c 42F00802 		orr	r2, r2, #8
 284 0020 1A70     		strb	r2, [r3]
  76:Generated_Source\PSoC5/Comp_1.c ****     #if ( Comp_1_DEFAULT_BYPASS_SYNC == 0u )
 285              		.loc 1 76 0
 286 0022 03F28723 		addw	r3, r3, #647
 287 0026 1A78     		ldrb	r2, [r3]	@ zero_extendqisi2
 288 0028 02F0E702 		and	r2, r2, #231
 289 002c 1A70     		strb	r2, [r3]
  80:Generated_Source\PSoC5/Comp_1.c ****     #endif /* Comp_1_DEFAULT_BYPASS_SYNC == 0u */
 290              		.loc 1 80 0
ARM GAS  C:\Users\dph5ah\AppData\Local\Temp\ccYBbjKj.s 			page 13


 291 002e 1A78     		ldrb	r2, [r3]	@ zero_extendqisi2
 292 0030 42F01002 		orr	r2, r2, #16
 293 0034 1A70     		strb	r2, [r3]
 294 0036 08BD     		pop	{r3, pc}
 295              	.L28:
 296              		.align	2
 297              	.L27:
 298 0038 40580040 		.word	1073764416
 299              		.cfi_endproc
 300              	.LFE0:
 301              		.size	Comp_1_Init, .-Comp_1_Init
 302              		.section	.text.Comp_1_Start,"ax",%progbits
 303              		.align	2
 304              		.global	Comp_1_Start
 305              		.thumb
 306              		.thumb_func
 307              		.type	Comp_1_Start, %function
 308              	Comp_1_Start:
 309              	.LFB2:
 137:Generated_Source\PSoC5/Comp_1.c **** 
 310              		.loc 1 137 0
 311              		.cfi_startproc
 312              		@ args = 0, pretend = 0, frame = 0
 313              		@ frame_needed = 0, uses_anonymous_args = 0
 314 0000 08B5     		push	{r3, lr}
 315              		.cfi_def_cfa_offset 8
 316              		.cfi_offset 3, -8
 317              		.cfi_offset 14, -4
 139:Generated_Source\PSoC5/Comp_1.c ****     {
 318              		.loc 1 139 0
 319 0002 054B     		ldr	r3, .L32
 320 0004 1B78     		ldrb	r3, [r3]	@ zero_extendqisi2
 321 0006 23B9     		cbnz	r3, .L30
 141:Generated_Source\PSoC5/Comp_1.c ****         
 322              		.loc 1 141 0
 323 0008 FFF7FEFF 		bl	Comp_1_Init
 324              	.LVL10:
 143:Generated_Source\PSoC5/Comp_1.c ****     }   
 325              		.loc 1 143 0
 326 000c 0122     		movs	r2, #1
 327 000e 024B     		ldr	r3, .L32
 328 0010 1A70     		strb	r2, [r3]
 329              	.L30:
 147:Generated_Source\PSoC5/Comp_1.c **** }
 330              		.loc 1 147 0
 331 0012 FFF7FEFF 		bl	Comp_1_Enable
 332              	.LVL11:
 333 0016 08BD     		pop	{r3, pc}
 334              	.L33:
 335              		.align	2
 336              	.L32:
 337 0018 00000000 		.word	.LANCHOR0
 338              		.cfi_endproc
 339              	.LFE2:
 340              		.size	Comp_1_Start, .-Comp_1_Start
 341              		.section	.text.Comp_1_GetCompare,"ax",%progbits
 342              		.align	2
ARM GAS  C:\Users\dph5ah\AppData\Local\Temp\ccYBbjKj.s 			page 14


 343              		.global	Comp_1_GetCompare
 344              		.thumb
 345              		.thumb_func
 346              		.type	Comp_1_GetCompare, %function
 347              	Comp_1_GetCompare:
 348              	.LFB5:
 252:Generated_Source\PSoC5/Comp_1.c ****     return( Comp_1_WRK & Comp_1_CMP_OUT_MASK);
 349              		.loc 1 252 0
 350              		.cfi_startproc
 351              		@ args = 0, pretend = 0, frame = 0
 352              		@ frame_needed = 0, uses_anonymous_args = 0
 353              		@ link register save eliminated.
 253:Generated_Source\PSoC5/Comp_1.c **** }
 354              		.loc 1 253 0
 355 0000 024B     		ldr	r3, .L35
 356 0002 1878     		ldrb	r0, [r3]	@ zero_extendqisi2
 254:Generated_Source\PSoC5/Comp_1.c **** 
 357              		.loc 1 254 0
 358 0004 00F00100 		and	r0, r0, #1
 359 0008 7047     		bx	lr
 360              	.L36:
 361 000a 00BF     		.align	2
 362              	.L35:
 363 000c 965B0040 		.word	1073765270
 364              		.cfi_endproc
 365              	.LFE5:
 366              		.size	Comp_1_GetCompare, .-Comp_1_GetCompare
 367              		.section	.text.Comp_1_ZeroCal,"ax",%progbits
 368              		.align	2
 369              		.global	Comp_1_ZeroCal
 370              		.thumb
 371              		.thumb_func
 372              		.type	Comp_1_ZeroCal, %function
 373              	Comp_1_ZeroCal:
 374              	.LFB7:
 373:Generated_Source\PSoC5/Comp_1.c ****         {
 374:Generated_Source\PSoC5/Comp_1.c ****             break;      /* output changed state, trim phase is complete */
 375:Generated_Source\PSoC5/Comp_1.c ****         }        
 376:Generated_Source\PSoC5/Comp_1.c ****     }    
 377:Generated_Source\PSoC5/Comp_1.c **** }
 378:Generated_Source\PSoC5/Comp_1.c **** 
 379:Generated_Source\PSoC5/Comp_1.c **** 
 380:Generated_Source\PSoC5/Comp_1.c **** /*******************************************************************************
 381:Generated_Source\PSoC5/Comp_1.c **** * Function Name: Comp_1_ZeroCal
 382:Generated_Source\PSoC5/Comp_1.c **** ********************************************************************************
 383:Generated_Source\PSoC5/Comp_1.c **** *
 384:Generated_Source\PSoC5/Comp_1.c **** * Summary:
 385:Generated_Source\PSoC5/Comp_1.c **** *  This function calibrates the offset of the Analog Comparator.
 386:Generated_Source\PSoC5/Comp_1.c **** *
 387:Generated_Source\PSoC5/Comp_1.c **** * Parameters:
 388:Generated_Source\PSoC5/Comp_1.c **** *  None
 389:Generated_Source\PSoC5/Comp_1.c **** *
 390:Generated_Source\PSoC5/Comp_1.c **** * Return:
 391:Generated_Source\PSoC5/Comp_1.c **** *  (uint16)  value written in trim register when calibration complete.
 392:Generated_Source\PSoC5/Comp_1.c **** *
 393:Generated_Source\PSoC5/Comp_1.c **** * Theory: 
 394:Generated_Source\PSoC5/Comp_1.c **** *  This function is used to optimize the calibration for user specific voltage
ARM GAS  C:\Users\dph5ah\AppData\Local\Temp\ccYBbjKj.s 			page 15


 395:Generated_Source\PSoC5/Comp_1.c **** *  range.  The comparator trim is adjusted to counter transistor offsets
 396:Generated_Source\PSoC5/Comp_1.c **** *   - offset is defined as positive if the output transitions to high before inP
 397:Generated_Source\PSoC5/Comp_1.c **** *     is greater than inN
 398:Generated_Source\PSoC5/Comp_1.c **** *   - offset is defined as negative if the output transitions to high after inP
 399:Generated_Source\PSoC5/Comp_1.c **** *     is greater than inP
 400:Generated_Source\PSoC5/Comp_1.c **** *
 401:Generated_Source\PSoC5/Comp_1.c **** *  PSoC5A
 402:Generated_Source\PSoC5/Comp_1.c **** *  The Analog Comparator provides 1 byte for offset trim.  The byte contains two
 403:Generated_Source\PSoC5/Comp_1.c **** *  4 bit trim fields - one is a course trim and the other allows smaller
 404:Generated_Source\PSoC5/Comp_1.c **** *  offset adjustments only for slow modes.
 405:Generated_Source\PSoC5/Comp_1.c **** *  - low nibble - fine trim
 406:Generated_Source\PSoC5/Comp_1.c **** *  - high nibble - course trim
 407:Generated_Source\PSoC5/Comp_1.c **** *  PSoC3, PSoC5LP or later
 408:Generated_Source\PSoC5/Comp_1.c **** *  The Analog Comparator provides 2 bytes for offset trim.  The bytes contain two
 409:Generated_Source\PSoC5/Comp_1.c **** *  5 bit trim fields - one is a course trim and the other allows smaller
 410:Generated_Source\PSoC5/Comp_1.c **** *  offset adjustments only for slow modes.
 411:Generated_Source\PSoC5/Comp_1.c **** *  - TR0 - fine trim
 412:Generated_Source\PSoC5/Comp_1.c **** *  - TR1 - course trim
 413:Generated_Source\PSoC5/Comp_1.c **** *
 414:Generated_Source\PSoC5/Comp_1.c **** *  Trim algorithm is a two phase process
 415:Generated_Source\PSoC5/Comp_1.c **** *  The first phase performs course offset adjustment
 416:Generated_Source\PSoC5/Comp_1.c **** *  The second phase serves one of two purposes depending on the outcome of the
 417:Generated_Source\PSoC5/Comp_1.c **** *  first phase
 418:Generated_Source\PSoC5/Comp_1.c **** *  - if the first trim value was maxed out without a comparator output 
 419:Generated_Source\PSoC5/Comp_1.c **** *    transition, more offset will be added by adjusting the second trim value.
 420:Generated_Source\PSoC5/Comp_1.c **** *  - if the first trim phase resulted in a comparator output transition, the
 421:Generated_Source\PSoC5/Comp_1.c **** *    second trim value will serve as fine trim (in the opposite direction)to
 422:Generated_Source\PSoC5/Comp_1.c **** *    ensure the offset is < 1 mV.
 423:Generated_Source\PSoC5/Comp_1.c **** *
 424:Generated_Source\PSoC5/Comp_1.c **** * Trim Process:   
 425:Generated_Source\PSoC5/Comp_1.c **** *  1) User applies a voltage to the negative input.  Voltage should be in the
 426:Generated_Source\PSoC5/Comp_1.c **** *     comparator operating range or an average of the operating voltage range.
 427:Generated_Source\PSoC5/Comp_1.c **** *  2) Clear registers associated with analog routing to the positive input.
 428:Generated_Source\PSoC5/Comp_1.c **** *  3) Disable Hysteresis
 429:Generated_Source\PSoC5/Comp_1.c **** *  4) Set the calibration bit to short the negative and positive inputs to
 430:Generated_Source\PSoC5/Comp_1.c **** *     the users calibration voltage.
 431:Generated_Source\PSoC5/Comp_1.c **** *  5) Clear the TR register  ( TR = 0x00 )
 432:Generated_Source\PSoC5/Comp_1.c **** *  ** LOW MODES
 433:Generated_Source\PSoC5/Comp_1.c **** *  6) Check if compare output is high, if so, set the MSb of course trim field 
 434:Generated_Source\PSoC5/Comp_1.c **** *     to a 1.
 435:Generated_Source\PSoC5/Comp_1.c **** *  7) Increment the course trim field until the compare output changes
 436:Generated_Source\PSoC5/Comp_1.c **** *  8) Check if compare output is low, if so, set the MSb of fine trim field
 437:Generated_Source\PSoC5/Comp_1.c **** *     to a 1.
 438:Generated_Source\PSoC5/Comp_1.c **** *  9) Increment the fine trim field until the compare output changes
 439:Generated_Source\PSoC5/Comp_1.c **** *  ** FAST MODE - skip the steps 8,9
 440:Generated_Source\PSoC5/Comp_1.c **** *
 441:Generated_Source\PSoC5/Comp_1.c **** * Side Effects:
 442:Generated_Source\PSoC5/Comp_1.c **** *  Routine clears analog routing associated with the comparator positive input.  
 443:Generated_Source\PSoC5/Comp_1.c **** *  This may affect routing of signals from other components that are connected
 444:Generated_Source\PSoC5/Comp_1.c **** *  to the positive input of the comparator.
 445:Generated_Source\PSoC5/Comp_1.c **** *
 446:Generated_Source\PSoC5/Comp_1.c **** *******************************************************************************/
 447:Generated_Source\PSoC5/Comp_1.c **** uint16 Comp_1_ZeroCal(void) 
 448:Generated_Source\PSoC5/Comp_1.c **** {
 375              		.loc 1 448 0
 376              		.cfi_startproc
 377              		@ args = 0, pretend = 0, frame = 0
ARM GAS  C:\Users\dph5ah\AppData\Local\Temp\ccYBbjKj.s 			page 16


 378              		@ frame_needed = 0, uses_anonymous_args = 0
 379 0000 F8B5     		push	{r3, r4, r5, r6, r7, lr}
 380              		.cfi_def_cfa_offset 24
 381              		.cfi_offset 3, -24
 382              		.cfi_offset 4, -20
 383              		.cfi_offset 5, -16
 384              		.cfi_offset 6, -12
 385              		.cfi_offset 7, -8
 386              		.cfi_offset 14, -4
 449:Generated_Source\PSoC5/Comp_1.c ****     uint8 tmpSW0;
 450:Generated_Source\PSoC5/Comp_1.c ****     uint8 tmpSW2;
 451:Generated_Source\PSoC5/Comp_1.c ****     uint8 tmpSW3;
 452:Generated_Source\PSoC5/Comp_1.c ****     uint8 tmpCR;
 453:Generated_Source\PSoC5/Comp_1.c **** 
 454:Generated_Source\PSoC5/Comp_1.c ****     /* Save a copy of routing registers associated with inP */
 455:Generated_Source\PSoC5/Comp_1.c ****     tmpSW0 = Comp_1_SW0;
 387              		.loc 1 455 0
 388 0002 1E48     		ldr	r0, .L41
 389 0004 0678     		ldrb	r6, [r0]	@ zero_extendqisi2
 390 0006 F6B2     		uxtb	r6, r6
 391              	.LVL12:
 456:Generated_Source\PSoC5/Comp_1.c ****     tmpSW2 = Comp_1_SW2;
 392              		.loc 1 456 0
 393 0008 1D49     		ldr	r1, .L41+4
 394 000a 0D78     		ldrb	r5, [r1]	@ zero_extendqisi2
 395 000c EDB2     		uxtb	r5, r5
 396              	.LVL13:
 457:Generated_Source\PSoC5/Comp_1.c ****     tmpSW3 = Comp_1_SW3;
 397              		.loc 1 457 0
 398 000e 1D4B     		ldr	r3, .L41+8
 399 0010 1C78     		ldrb	r4, [r3]	@ zero_extendqisi2
 400 0012 E4B2     		uxtb	r4, r4
 401              	.LVL14:
 458:Generated_Source\PSoC5/Comp_1.c **** 
 459:Generated_Source\PSoC5/Comp_1.c ****      /* Clear routing for inP, retain routing for inN */
 460:Generated_Source\PSoC5/Comp_1.c ****     Comp_1_SW0 = 0x00u;
 402              		.loc 1 460 0
 403 0014 0022     		movs	r2, #0
 404 0016 0270     		strb	r2, [r0]
 461:Generated_Source\PSoC5/Comp_1.c ****     Comp_1_SW2 = 0x00u;
 405              		.loc 1 461 0
 406 0018 0A70     		strb	r2, [r1]
 462:Generated_Source\PSoC5/Comp_1.c ****     Comp_1_SW3 = tmpSW3 & (uint8)(~Comp_1_CMP_SW3_INPCTL_MASK);
 407              		.loc 1 462 0
 408 001a 04F0F601 		and	r1, r4, #246
 409 001e 1970     		strb	r1, [r3]
 463:Generated_Source\PSoC5/Comp_1.c **** 
 464:Generated_Source\PSoC5/Comp_1.c ****     /* Preserve original configuration
 465:Generated_Source\PSoC5/Comp_1.c ****      * - turn off Hysteresis
 466:Generated_Source\PSoC5/Comp_1.c ****      * - set calibration bit - shorts inN to inP
 467:Generated_Source\PSoC5/Comp_1.c ****     */
 468:Generated_Source\PSoC5/Comp_1.c ****     tmpCR = Comp_1_CR;
 410              		.loc 1 468 0
 411 0020 A3F28323 		subw	r3, r3, #643
 412 0024 1F78     		ldrb	r7, [r3]	@ zero_extendqisi2
 413 0026 FFB2     		uxtb	r7, r7
 414              	.LVL15:
ARM GAS  C:\Users\dph5ah\AppData\Local\Temp\ccYBbjKj.s 			page 17


 469:Generated_Source\PSoC5/Comp_1.c ****     Comp_1_CR |= (Comp_1_CAL_ON | Comp_1_HYST_OFF);
 415              		.loc 1 469 0
 416 0028 1978     		ldrb	r1, [r3]	@ zero_extendqisi2
 417 002a 41F03001 		orr	r1, r1, #48
 418 002e 1970     		strb	r1, [r3]
 470:Generated_Source\PSoC5/Comp_1.c ****     
 471:Generated_Source\PSoC5/Comp_1.c ****     /* Write default low values to trim register - no offset adjust */
 472:Generated_Source\PSoC5/Comp_1.c ****     /* PSoC5A */
 473:Generated_Source\PSoC5/Comp_1.c ****     #if (CY_PSOC5A)
 474:Generated_Source\PSoC5/Comp_1.c ****         Comp_1_TR = Comp_1_DEFAULT_CMP_TRIM;
 475:Generated_Source\PSoC5/Comp_1.c ****     #endif /* CY_PSOC5A */
 476:Generated_Source\PSoC5/Comp_1.c ****     
 477:Generated_Source\PSoC5/Comp_1.c ****     /* PSoC3, PSoC5LP or later */
 478:Generated_Source\PSoC5/Comp_1.c ****     #if (CY_PSOC3 || CY_PSOC5LP)
 479:Generated_Source\PSoC5/Comp_1.c ****         Comp_1_TR0 = Comp_1_DEFAULT_CMP_TRIM;
 419              		.loc 1 479 0
 420 0030 1549     		ldr	r1, .L41+12
 421 0032 0A70     		strb	r2, [r1]
 480:Generated_Source\PSoC5/Comp_1.c ****         Comp_1_TR1 = Comp_1_DEFAULT_CMP_TRIM;
 422              		.loc 1 480 0
 423 0034 0131     		adds	r1, r1, #1
 424 0036 0A70     		strb	r2, [r1]
 481:Generated_Source\PSoC5/Comp_1.c ****     #endif /* CY_PSOC3 || CY_PSOC5LP */
 482:Generated_Source\PSoC5/Comp_1.c **** 	
 483:Generated_Source\PSoC5/Comp_1.c **** 	/* Two phase trim - slow modes, one phase trim - for fast */ 
 484:Generated_Source\PSoC5/Comp_1.c ****     if ( (Comp_1_CR & Comp_1_PWR_MODE_MASK) == Comp_1_PWR_MODE_FAST)
 425              		.loc 1 484 0
 426 0038 1B78     		ldrb	r3, [r3]	@ zero_extendqisi2
 427 003a 03F00303 		and	r3, r3, #3
 428 003e 012B     		cmp	r3, #1
 429 0040 03D1     		bne	.L38
 485:Generated_Source\PSoC5/Comp_1.c ****     {
 486:Generated_Source\PSoC5/Comp_1.c ****         Comp_1_trimAdjust(0u);
 430              		.loc 1 486 0
 431 0042 1046     		mov	r0, r2
 432 0044 FFF7FEFF 		bl	Comp_1_trimAdjust
 433              	.LVL16:
 434 0048 05E0     		b	.L39
 435              	.L38:
 487:Generated_Source\PSoC5/Comp_1.c ****     }
 488:Generated_Source\PSoC5/Comp_1.c ****     else /* default to trim for fast modes */
 489:Generated_Source\PSoC5/Comp_1.c ****     {
 490:Generated_Source\PSoC5/Comp_1.c ****         Comp_1_trimAdjust(1u);
 436              		.loc 1 490 0
 437 004a 0120     		movs	r0, #1
 438 004c FFF7FEFF 		bl	Comp_1_trimAdjust
 439              	.LVL17:
 491:Generated_Source\PSoC5/Comp_1.c **** 		Comp_1_trimAdjust(0u);
 440              		.loc 1 491 0
 441 0050 0020     		movs	r0, #0
 442 0052 FFF7FEFF 		bl	Comp_1_trimAdjust
 443              	.LVL18:
 444              	.L39:
 492:Generated_Source\PSoC5/Comp_1.c ****     }
 493:Generated_Source\PSoC5/Comp_1.c ****    
 494:Generated_Source\PSoC5/Comp_1.c ****     /* Restore Config Register */
 495:Generated_Source\PSoC5/Comp_1.c ****     Comp_1_CR = tmpCR;
ARM GAS  C:\Users\dph5ah\AppData\Local\Temp\ccYBbjKj.s 			page 18


 445              		.loc 1 495 0
 446 0056 0D4B     		ldr	r3, .L41+16
 447 0058 1F70     		strb	r7, [r3]
 496:Generated_Source\PSoC5/Comp_1.c ****     
 497:Generated_Source\PSoC5/Comp_1.c ****     /* Restore routing registers for inP */
 498:Generated_Source\PSoC5/Comp_1.c ****     Comp_1_SW0 = tmpSW0;
 448              		.loc 1 498 0
 449 005a 03F52073 		add	r3, r3, #640
 450 005e 1E70     		strb	r6, [r3]
 499:Generated_Source\PSoC5/Comp_1.c ****     Comp_1_SW2 = tmpSW2;
 451              		.loc 1 499 0
 452 0060 0233     		adds	r3, r3, #2
 453 0062 1D70     		strb	r5, [r3]
 500:Generated_Source\PSoC5/Comp_1.c ****     Comp_1_SW3 = tmpSW3;
 454              		.loc 1 500 0
 455 0064 0133     		adds	r3, r3, #1
 456 0066 1C70     		strb	r4, [r3]
 501:Generated_Source\PSoC5/Comp_1.c ****     
 502:Generated_Source\PSoC5/Comp_1.c ****     /* PSoC5A */
 503:Generated_Source\PSoC5/Comp_1.c ****     #if (CY_PSOC5A)
 504:Generated_Source\PSoC5/Comp_1.c ****         return (uint16) Comp_1_TR;
 505:Generated_Source\PSoC5/Comp_1.c ****     #endif /* CY_PSOC5A */
 506:Generated_Source\PSoC5/Comp_1.c ****     
 507:Generated_Source\PSoC5/Comp_1.c ****     /* PSoC3, PSoC5LP or later */
 508:Generated_Source\PSoC5/Comp_1.c ****     #if (CY_PSOC3 || CY_PSOC5LP)
 509:Generated_Source\PSoC5/Comp_1.c ****         return ((uint16)((uint16)Comp_1_TR1 << 8u) | (Comp_1_TR0));        
 457              		.loc 1 509 0
 458 0068 A3F5A453 		sub	r3, r3, #5248
 459 006c 123B     		subs	r3, r3, #18
 460 006e 1878     		ldrb	r0, [r3]	@ zero_extendqisi2
 461 0070 013B     		subs	r3, r3, #1
 462 0072 1B78     		ldrb	r3, [r3]	@ zero_extendqisi2
 510:Generated_Source\PSoC5/Comp_1.c ****     #endif /* CY_PSOC3 || CY_PSOC5LP */
 511:Generated_Source\PSoC5/Comp_1.c **** }
 463              		.loc 1 511 0
 464 0074 43EA0020 		orr	r0, r3, r0, lsl #8
 465 0078 F8BD     		pop	{r3, r4, r5, r6, r7, pc}
 466              	.LVL19:
 467              	.L42:
 468 007a 00BF     		.align	2
 469              	.L41:
 470 007c C05A0040 		.word	1073765056
 471 0080 C25A0040 		.word	1073765058
 472 0084 C35A0040 		.word	1073765059
 473 0088 30460040 		.word	1073759792
 474 008c 40580040 		.word	1073764416
 475              		.cfi_endproc
 476              	.LFE7:
 477              		.size	Comp_1_ZeroCal, .-Comp_1_ZeroCal
 478              		.section	.text.Comp_1_LoadTrim,"ax",%progbits
 479              		.align	2
 480              		.global	Comp_1_LoadTrim
 481              		.thumb
 482              		.thumb_func
 483              		.type	Comp_1_LoadTrim, %function
 484              	Comp_1_LoadTrim:
 485              	.LFB8:
ARM GAS  C:\Users\dph5ah\AppData\Local\Temp\ccYBbjKj.s 			page 19


 512:Generated_Source\PSoC5/Comp_1.c **** 
 513:Generated_Source\PSoC5/Comp_1.c **** 
 514:Generated_Source\PSoC5/Comp_1.c **** /*******************************************************************************
 515:Generated_Source\PSoC5/Comp_1.c **** * Function Name: Comp_1_LoadTrim
 516:Generated_Source\PSoC5/Comp_1.c **** ********************************************************************************
 517:Generated_Source\PSoC5/Comp_1.c **** *
 518:Generated_Source\PSoC5/Comp_1.c **** * Summary:
 519:Generated_Source\PSoC5/Comp_1.c **** *  This function stores a value in the Analog Comparator trim register.
 520:Generated_Source\PSoC5/Comp_1.c **** *
 521:Generated_Source\PSoC5/Comp_1.c **** * Parameters:  
 522:Generated_Source\PSoC5/Comp_1.c **** *  uint8 trimVal - trim value.  This value is the same format as the value 
 523:Generated_Source\PSoC5/Comp_1.c **** *  returned by the _ZeroCal routine.
 524:Generated_Source\PSoC5/Comp_1.c **** *
 525:Generated_Source\PSoC5/Comp_1.c **** * Return:
 526:Generated_Source\PSoC5/Comp_1.c **** *  None
 527:Generated_Source\PSoC5/Comp_1.c **** *
 528:Generated_Source\PSoC5/Comp_1.c **** *******************************************************************************/
 529:Generated_Source\PSoC5/Comp_1.c **** void Comp_1_LoadTrim(uint16 trimVal) 
 530:Generated_Source\PSoC5/Comp_1.c **** {
 486              		.loc 1 530 0
 487              		.cfi_startproc
 488              		@ args = 0, pretend = 0, frame = 0
 489              		@ frame_needed = 0, uses_anonymous_args = 0
 490              		@ link register save eliminated.
 491              	.LVL20:
 531:Generated_Source\PSoC5/Comp_1.c ****     /* Stores value in the Analog Comparator trim register */
 532:Generated_Source\PSoC5/Comp_1.c ****     /* PSoC5A */
 533:Generated_Source\PSoC5/Comp_1.c ****     #if (CY_PSOC5A)
 534:Generated_Source\PSoC5/Comp_1.c ****         Comp_1_TR = (uint8) trimVal;
 535:Generated_Source\PSoC5/Comp_1.c ****     #endif /* CY_PSOC5A */
 536:Generated_Source\PSoC5/Comp_1.c ****     
 537:Generated_Source\PSoC5/Comp_1.c ****     /* PSoC3, PSoC5LP or later */
 538:Generated_Source\PSoC5/Comp_1.c ****     #if (CY_PSOC3 || CY_PSOC5LP)
 539:Generated_Source\PSoC5/Comp_1.c ****         /* Stores value in the Analog Comparator trim register for P-type load */
 540:Generated_Source\PSoC5/Comp_1.c ****         Comp_1_TR0 = (uint8) trimVal;
 492              		.loc 1 540 0
 493 0000 C2B2     		uxtb	r2, r0
 494 0002 034B     		ldr	r3, .L44
 495 0004 1A70     		strb	r2, [r3]
 541:Generated_Source\PSoC5/Comp_1.c ****         
 542:Generated_Source\PSoC5/Comp_1.c ****         /* Stores value in the Analog Comparator trim register for N-type load */
 543:Generated_Source\PSoC5/Comp_1.c ****         Comp_1_TR1 = (uint8) (trimVal >> 8); 
 496              		.loc 1 543 0
 497 0006 000A     		lsrs	r0, r0, #8
 498              	.LVL21:
 499 0008 0133     		adds	r3, r3, #1
 500 000a 1870     		strb	r0, [r3]
 501 000c 7047     		bx	lr
 502              	.L45:
 503 000e 00BF     		.align	2
 504              	.L44:
 505 0010 30460040 		.word	1073759792
 506              		.cfi_endproc
 507              	.LFE8:
 508              		.size	Comp_1_LoadTrim, .-Comp_1_LoadTrim
 509              		.section	.text.Comp_1_PwrDwnOverrideEnable,"ax",%progbits
 510              		.align	2
ARM GAS  C:\Users\dph5ah\AppData\Local\Temp\ccYBbjKj.s 			page 20


 511              		.global	Comp_1_PwrDwnOverrideEnable
 512              		.thumb
 513              		.thumb_func
 514              		.type	Comp_1_PwrDwnOverrideEnable, %function
 515              	Comp_1_PwrDwnOverrideEnable:
 516              	.LFB9:
 544:Generated_Source\PSoC5/Comp_1.c ****     #endif /* CY_PSOC3 || CY_PSOC5LP */
 545:Generated_Source\PSoC5/Comp_1.c **** }
 546:Generated_Source\PSoC5/Comp_1.c **** 
 547:Generated_Source\PSoC5/Comp_1.c **** 
 548:Generated_Source\PSoC5/Comp_1.c **** #if (CY_PSOC3 || CY_PSOC5LP)
 549:Generated_Source\PSoC5/Comp_1.c **** 
 550:Generated_Source\PSoC5/Comp_1.c ****     /*******************************************************************************
 551:Generated_Source\PSoC5/Comp_1.c ****     * Function Name: Comp_1_PwrDwnOverrideEnable
 552:Generated_Source\PSoC5/Comp_1.c ****     ********************************************************************************
 553:Generated_Source\PSoC5/Comp_1.c ****     *
 554:Generated_Source\PSoC5/Comp_1.c ****     * Summary:
 555:Generated_Source\PSoC5/Comp_1.c ****     *  This is the power down over-ride feature. This function ignores sleep 
 556:Generated_Source\PSoC5/Comp_1.c ****     *  parameter and allows the component to stay active during sleep mode.
 557:Generated_Source\PSoC5/Comp_1.c ****     *
 558:Generated_Source\PSoC5/Comp_1.c ****     * Parameters:
 559:Generated_Source\PSoC5/Comp_1.c ****     *  None
 560:Generated_Source\PSoC5/Comp_1.c ****     *
 561:Generated_Source\PSoC5/Comp_1.c ****     * Return:
 562:Generated_Source\PSoC5/Comp_1.c ****     *  None
 563:Generated_Source\PSoC5/Comp_1.c ****     *
 564:Generated_Source\PSoC5/Comp_1.c ****     *******************************************************************************/
 565:Generated_Source\PSoC5/Comp_1.c ****     void Comp_1_PwrDwnOverrideEnable(void) 
 566:Generated_Source\PSoC5/Comp_1.c ****     {
 517              		.loc 1 566 0
 518              		.cfi_startproc
 519              		@ args = 0, pretend = 0, frame = 0
 520              		@ frame_needed = 0, uses_anonymous_args = 0
 521              		@ link register save eliminated.
 567:Generated_Source\PSoC5/Comp_1.c ****         /* Set the pd_override bit in CMP_CR register */
 568:Generated_Source\PSoC5/Comp_1.c ****         Comp_1_CR |= Comp_1_PWRDWN_OVRD;
 522              		.loc 1 568 0
 523 0000 024A     		ldr	r2, .L47
 524 0002 1378     		ldrb	r3, [r2]	@ zero_extendqisi2
 525 0004 43F00403 		orr	r3, r3, #4
 526 0008 1370     		strb	r3, [r2]
 527 000a 7047     		bx	lr
 528              	.L48:
 529              		.align	2
 530              	.L47:
 531 000c 40580040 		.word	1073764416
 532              		.cfi_endproc
 533              	.LFE9:
 534              		.size	Comp_1_PwrDwnOverrideEnable, .-Comp_1_PwrDwnOverrideEnable
 535              		.section	.text.Comp_1_PwrDwnOverrideDisable,"ax",%progbits
 536              		.align	2
 537              		.global	Comp_1_PwrDwnOverrideDisable
 538              		.thumb
 539              		.thumb_func
 540              		.type	Comp_1_PwrDwnOverrideDisable, %function
 541              	Comp_1_PwrDwnOverrideDisable:
 542              	.LFB10:
ARM GAS  C:\Users\dph5ah\AppData\Local\Temp\ccYBbjKj.s 			page 21


 569:Generated_Source\PSoC5/Comp_1.c ****     }
 570:Generated_Source\PSoC5/Comp_1.c **** 
 571:Generated_Source\PSoC5/Comp_1.c **** 
 572:Generated_Source\PSoC5/Comp_1.c ****     /*******************************************************************************
 573:Generated_Source\PSoC5/Comp_1.c ****     * Function Name: Comp_1_PwrDwnOverrideDisable
 574:Generated_Source\PSoC5/Comp_1.c ****     ********************************************************************************
 575:Generated_Source\PSoC5/Comp_1.c ****     *
 576:Generated_Source\PSoC5/Comp_1.c ****     * Summary:
 577:Generated_Source\PSoC5/Comp_1.c ****     *  This is the power down over-ride feature. This allows the component to stay
 578:Generated_Source\PSoC5/Comp_1.c ****     *  inactive during sleep.
 579:Generated_Source\PSoC5/Comp_1.c ****     *
 580:Generated_Source\PSoC5/Comp_1.c ****     * Parameters:
 581:Generated_Source\PSoC5/Comp_1.c ****     *  None
 582:Generated_Source\PSoC5/Comp_1.c ****     *
 583:Generated_Source\PSoC5/Comp_1.c ****     * Return:
 584:Generated_Source\PSoC5/Comp_1.c ****     *  None
 585:Generated_Source\PSoC5/Comp_1.c ****     *
 586:Generated_Source\PSoC5/Comp_1.c ****     *******************************************************************************/
 587:Generated_Source\PSoC5/Comp_1.c ****     void Comp_1_PwrDwnOverrideDisable(void) 
 588:Generated_Source\PSoC5/Comp_1.c ****     {
 543              		.loc 1 588 0
 544              		.cfi_startproc
 545              		@ args = 0, pretend = 0, frame = 0
 546              		@ frame_needed = 0, uses_anonymous_args = 0
 547              		@ link register save eliminated.
 589:Generated_Source\PSoC5/Comp_1.c ****         /* Reset the pd_override bit in CMP_CR register */
 590:Generated_Source\PSoC5/Comp_1.c ****         Comp_1_CR &= (uint8)(~Comp_1_PWRDWN_OVRD);
 548              		.loc 1 590 0
 549 0000 024A     		ldr	r2, .L50
 550 0002 1378     		ldrb	r3, [r2]	@ zero_extendqisi2
 551 0004 03F0FB03 		and	r3, r3, #251
 552 0008 1370     		strb	r3, [r2]
 553 000a 7047     		bx	lr
 554              	.L51:
 555              		.align	2
 556              	.L50:
 557 000c 40580040 		.word	1073764416
 558              		.cfi_endproc
 559              	.LFE10:
 560              		.size	Comp_1_PwrDwnOverrideDisable, .-Comp_1_PwrDwnOverrideDisable
 561              		.global	Comp_1_initVar
 562              		.bss
 563              		.set	.LANCHOR0,. + 0
 564              		.type	Comp_1_initVar, %object
 565              		.size	Comp_1_initVar, 1
 566              	Comp_1_initVar:
 567 0000 00       		.space	1
 568              		.text
 569              	.Letext0:
 570              		.file 2 "Generated_Source\\PSoC5\\cytypes.h"
 571              		.file 3 "Generated_Source\\PSoC5\\CyLib.h"