ARM GAS  C:\Users\dph5ah\AppData\Local\Temp\cc1q34ya.s 			page 1


   1              		.syntax unified
   2              		.cpu cortex-m3
   3              		.fpu softvfp
   4              		.eabi_attribute 20, 1
   5              		.eabi_attribute 21, 1
   6              		.eabi_attribute 23, 3
   7              		.eabi_attribute 24, 1
   8              		.eabi_attribute 25, 1
   9              		.eabi_attribute 26, 1
  10              		.eabi_attribute 30, 1
  11              		.eabi_attribute 34, 1
  12              		.eabi_attribute 18, 4
  13              		.thumb
  14              		.file	"Counter_17_PM.c"
  15              		.text
  16              	.Ltext0:
  17              		.cfi_sections	.debug_frame
  18              		.section	.text.Counter_17_SaveConfig,"ax",%progbits
  19              		.align	2
  20              		.global	Counter_17_SaveConfig
  21              		.thumb
  22              		.thumb_func
  23              		.type	Counter_17_SaveConfig, %function
  24              	Counter_17_SaveConfig:
  25              	.LFB0:
  26              		.file 1 "Generated_Source\\PSoC5\\Counter_17_PM.c"
   1:Generated_Source\PSoC5/Counter_17_PM.c **** /*******************************************************************************
   2:Generated_Source\PSoC5/Counter_17_PM.c **** * File Name: Counter_17_PM.c  
   3:Generated_Source\PSoC5/Counter_17_PM.c **** * Version 3.0
   4:Generated_Source\PSoC5/Counter_17_PM.c **** *
   5:Generated_Source\PSoC5/Counter_17_PM.c **** *  Description:
   6:Generated_Source\PSoC5/Counter_17_PM.c **** *    This file provides the power management source code to API for the
   7:Generated_Source\PSoC5/Counter_17_PM.c **** *    Counter.  
   8:Generated_Source\PSoC5/Counter_17_PM.c **** *
   9:Generated_Source\PSoC5/Counter_17_PM.c **** *   Note:
  10:Generated_Source\PSoC5/Counter_17_PM.c **** *     None
  11:Generated_Source\PSoC5/Counter_17_PM.c **** *
  12:Generated_Source\PSoC5/Counter_17_PM.c **** ********************************************************************************
  13:Generated_Source\PSoC5/Counter_17_PM.c **** * Copyright 2008-2012, Cypress Semiconductor Corporation.  All rights reserved.
  14:Generated_Source\PSoC5/Counter_17_PM.c **** * You may use this file only in accordance with the license, terms, conditions, 
  15:Generated_Source\PSoC5/Counter_17_PM.c **** * disclaimers, and limitations in the end user license agreement accompanying 
  16:Generated_Source\PSoC5/Counter_17_PM.c **** * the software package with which this file was provided.
  17:Generated_Source\PSoC5/Counter_17_PM.c **** *******************************************************************************/
  18:Generated_Source\PSoC5/Counter_17_PM.c **** 
  19:Generated_Source\PSoC5/Counter_17_PM.c **** #include "Counter_17.h"
  20:Generated_Source\PSoC5/Counter_17_PM.c **** 
  21:Generated_Source\PSoC5/Counter_17_PM.c **** static Counter_17_backupStruct Counter_17_backup;
  22:Generated_Source\PSoC5/Counter_17_PM.c **** 
  23:Generated_Source\PSoC5/Counter_17_PM.c **** 
  24:Generated_Source\PSoC5/Counter_17_PM.c **** /*******************************************************************************
  25:Generated_Source\PSoC5/Counter_17_PM.c **** * Function Name: Counter_17_SaveConfig
  26:Generated_Source\PSoC5/Counter_17_PM.c **** ********************************************************************************
  27:Generated_Source\PSoC5/Counter_17_PM.c **** * Summary:
  28:Generated_Source\PSoC5/Counter_17_PM.c **** *     Save the current user configuration
  29:Generated_Source\PSoC5/Counter_17_PM.c **** *
  30:Generated_Source\PSoC5/Counter_17_PM.c **** * Parameters:  
  31:Generated_Source\PSoC5/Counter_17_PM.c **** *  void
ARM GAS  C:\Users\dph5ah\AppData\Local\Temp\cc1q34ya.s 			page 2


  32:Generated_Source\PSoC5/Counter_17_PM.c **** *
  33:Generated_Source\PSoC5/Counter_17_PM.c **** * Return: 
  34:Generated_Source\PSoC5/Counter_17_PM.c **** *  void
  35:Generated_Source\PSoC5/Counter_17_PM.c **** *
  36:Generated_Source\PSoC5/Counter_17_PM.c **** * Global variables:
  37:Generated_Source\PSoC5/Counter_17_PM.c **** *  Counter_17_backup:  Variables of this global structure are modified to 
  38:Generated_Source\PSoC5/Counter_17_PM.c **** *  store the values of non retention configuration registers when Sleep() API is 
  39:Generated_Source\PSoC5/Counter_17_PM.c **** *  called.
  40:Generated_Source\PSoC5/Counter_17_PM.c **** *
  41:Generated_Source\PSoC5/Counter_17_PM.c **** *******************************************************************************/
  42:Generated_Source\PSoC5/Counter_17_PM.c **** void Counter_17_SaveConfig(void) 
  43:Generated_Source\PSoC5/Counter_17_PM.c **** {
  27              		.loc 1 43 0
  28              		.cfi_startproc
  29              		@ args = 0, pretend = 0, frame = 0
  30              		@ frame_needed = 0, uses_anonymous_args = 0
  31 0000 10B5     		push	{r4, lr}
  32              		.cfi_def_cfa_offset 8
  33              		.cfi_offset 4, -8
  34              		.cfi_offset 14, -4
  44:Generated_Source\PSoC5/Counter_17_PM.c ****     #if (!Counter_17_UsingFixedFunction)
  45:Generated_Source\PSoC5/Counter_17_PM.c **** 
  46:Generated_Source\PSoC5/Counter_17_PM.c ****         Counter_17_backup.CounterUdb = Counter_17_ReadCounter();
  35              		.loc 1 46 0
  36 0002 FFF7FEFF 		bl	Counter_17_ReadCounter
  37              	.LVL0:
  38 0006 034C     		ldr	r4, .L3
  39 0008 6070     		strb	r0, [r4, #1]
  47:Generated_Source\PSoC5/Counter_17_PM.c **** 
  48:Generated_Source\PSoC5/Counter_17_PM.c ****         #if(!Counter_17_ControlRegRemoved)
  49:Generated_Source\PSoC5/Counter_17_PM.c ****             Counter_17_backup.CounterControlRegister = Counter_17_ReadControlRegister();
  40              		.loc 1 49 0
  41 000a FFF7FEFF 		bl	Counter_17_ReadControlRegister
  42              	.LVL1:
  43 000e A070     		strb	r0, [r4, #2]
  44 0010 10BD     		pop	{r4, pc}
  45              	.L4:
  46 0012 00BF     		.align	2
  47              	.L3:
  48 0014 00000000 		.word	.LANCHOR0
  49              		.cfi_endproc
  50              	.LFE0:
  51              		.size	Counter_17_SaveConfig, .-Counter_17_SaveConfig
  52              		.section	.text.Counter_17_RestoreConfig,"ax",%progbits
  53              		.align	2
  54              		.global	Counter_17_RestoreConfig
  55              		.thumb
  56              		.thumb_func
  57              		.type	Counter_17_RestoreConfig, %function
  58              	Counter_17_RestoreConfig:
  59              	.LFB1:
  50:Generated_Source\PSoC5/Counter_17_PM.c ****         #endif /* (!Counter_17_ControlRegRemoved) */
  51:Generated_Source\PSoC5/Counter_17_PM.c **** 
  52:Generated_Source\PSoC5/Counter_17_PM.c ****     #endif /* (!Counter_17_UsingFixedFunction) */
  53:Generated_Source\PSoC5/Counter_17_PM.c **** }
  54:Generated_Source\PSoC5/Counter_17_PM.c **** 
  55:Generated_Source\PSoC5/Counter_17_PM.c **** 
ARM GAS  C:\Users\dph5ah\AppData\Local\Temp\cc1q34ya.s 			page 3


  56:Generated_Source\PSoC5/Counter_17_PM.c **** /*******************************************************************************
  57:Generated_Source\PSoC5/Counter_17_PM.c **** * Function Name: Counter_17_RestoreConfig
  58:Generated_Source\PSoC5/Counter_17_PM.c **** ********************************************************************************
  59:Generated_Source\PSoC5/Counter_17_PM.c **** *
  60:Generated_Source\PSoC5/Counter_17_PM.c **** * Summary:
  61:Generated_Source\PSoC5/Counter_17_PM.c **** *  Restores the current user configuration.
  62:Generated_Source\PSoC5/Counter_17_PM.c **** *
  63:Generated_Source\PSoC5/Counter_17_PM.c **** * Parameters:  
  64:Generated_Source\PSoC5/Counter_17_PM.c **** *  void
  65:Generated_Source\PSoC5/Counter_17_PM.c **** *
  66:Generated_Source\PSoC5/Counter_17_PM.c **** * Return: 
  67:Generated_Source\PSoC5/Counter_17_PM.c **** *  void
  68:Generated_Source\PSoC5/Counter_17_PM.c **** *
  69:Generated_Source\PSoC5/Counter_17_PM.c **** * Global variables:
  70:Generated_Source\PSoC5/Counter_17_PM.c **** *  Counter_17_backup:  Variables of this global structure are used to 
  71:Generated_Source\PSoC5/Counter_17_PM.c **** *  restore the values of non retention registers on wakeup from sleep mode.
  72:Generated_Source\PSoC5/Counter_17_PM.c **** *
  73:Generated_Source\PSoC5/Counter_17_PM.c **** *******************************************************************************/
  74:Generated_Source\PSoC5/Counter_17_PM.c **** void Counter_17_RestoreConfig(void) 
  75:Generated_Source\PSoC5/Counter_17_PM.c **** {      
  60              		.loc 1 75 0
  61              		.cfi_startproc
  62              		@ args = 0, pretend = 0, frame = 0
  63              		@ frame_needed = 0, uses_anonymous_args = 0
  64 0000 10B5     		push	{r4, lr}
  65              		.cfi_def_cfa_offset 8
  66              		.cfi_offset 4, -8
  67              		.cfi_offset 14, -4
  76:Generated_Source\PSoC5/Counter_17_PM.c ****     #if (!Counter_17_UsingFixedFunction)
  77:Generated_Source\PSoC5/Counter_17_PM.c **** 
  78:Generated_Source\PSoC5/Counter_17_PM.c ****        Counter_17_WriteCounter(Counter_17_backup.CounterUdb);
  68              		.loc 1 78 0
  69 0002 044C     		ldr	r4, .L7
  70 0004 6078     		ldrb	r0, [r4, #1]	@ zero_extendqisi2
  71 0006 FFF7FEFF 		bl	Counter_17_WriteCounter
  72              	.LVL2:
  79:Generated_Source\PSoC5/Counter_17_PM.c **** 
  80:Generated_Source\PSoC5/Counter_17_PM.c ****         #if(!Counter_17_ControlRegRemoved)
  81:Generated_Source\PSoC5/Counter_17_PM.c ****             Counter_17_WriteControlRegister(Counter_17_backup.CounterControlRegister);
  73              		.loc 1 81 0
  74 000a A078     		ldrb	r0, [r4, #2]	@ zero_extendqisi2
  75 000c FFF7FEFF 		bl	Counter_17_WriteControlRegister
  76              	.LVL3:
  77 0010 10BD     		pop	{r4, pc}
  78              	.L8:
  79 0012 00BF     		.align	2
  80              	.L7:
  81 0014 00000000 		.word	.LANCHOR0
  82              		.cfi_endproc
  83              	.LFE1:
  84              		.size	Counter_17_RestoreConfig, .-Counter_17_RestoreConfig
  85              		.section	.text.Counter_17_Sleep,"ax",%progbits
  86              		.align	2
  87              		.global	Counter_17_Sleep
  88              		.thumb
  89              		.thumb_func
  90              		.type	Counter_17_Sleep, %function
ARM GAS  C:\Users\dph5ah\AppData\Local\Temp\cc1q34ya.s 			page 4


  91              	Counter_17_Sleep:
  92              	.LFB2:
  82:Generated_Source\PSoC5/Counter_17_PM.c ****         #endif /* (!Counter_17_ControlRegRemoved) */
  83:Generated_Source\PSoC5/Counter_17_PM.c **** 
  84:Generated_Source\PSoC5/Counter_17_PM.c ****     #endif /* (!Counter_17_UsingFixedFunction) */
  85:Generated_Source\PSoC5/Counter_17_PM.c **** }
  86:Generated_Source\PSoC5/Counter_17_PM.c **** 
  87:Generated_Source\PSoC5/Counter_17_PM.c **** 
  88:Generated_Source\PSoC5/Counter_17_PM.c **** /*******************************************************************************
  89:Generated_Source\PSoC5/Counter_17_PM.c **** * Function Name: Counter_17_Sleep
  90:Generated_Source\PSoC5/Counter_17_PM.c **** ********************************************************************************
  91:Generated_Source\PSoC5/Counter_17_PM.c **** * Summary:
  92:Generated_Source\PSoC5/Counter_17_PM.c **** *     Stop and Save the user configuration
  93:Generated_Source\PSoC5/Counter_17_PM.c **** *
  94:Generated_Source\PSoC5/Counter_17_PM.c **** * Parameters:  
  95:Generated_Source\PSoC5/Counter_17_PM.c **** *  void
  96:Generated_Source\PSoC5/Counter_17_PM.c **** *
  97:Generated_Source\PSoC5/Counter_17_PM.c **** * Return: 
  98:Generated_Source\PSoC5/Counter_17_PM.c **** *  void
  99:Generated_Source\PSoC5/Counter_17_PM.c **** *
 100:Generated_Source\PSoC5/Counter_17_PM.c **** * Global variables:
 101:Generated_Source\PSoC5/Counter_17_PM.c **** *  Counter_17_backup.enableState:  Is modified depending on the enable 
 102:Generated_Source\PSoC5/Counter_17_PM.c **** *  state of the block before entering sleep mode.
 103:Generated_Source\PSoC5/Counter_17_PM.c **** *
 104:Generated_Source\PSoC5/Counter_17_PM.c **** *******************************************************************************/
 105:Generated_Source\PSoC5/Counter_17_PM.c **** void Counter_17_Sleep(void) 
 106:Generated_Source\PSoC5/Counter_17_PM.c **** {
  93              		.loc 1 106 0
  94              		.cfi_startproc
  95              		@ args = 0, pretend = 0, frame = 0
  96              		@ frame_needed = 0, uses_anonymous_args = 0
  97 0000 08B5     		push	{r3, lr}
  98              		.cfi_def_cfa_offset 8
  99              		.cfi_offset 3, -8
 100              		.cfi_offset 14, -4
 107:Generated_Source\PSoC5/Counter_17_PM.c ****     #if(!Counter_17_ControlRegRemoved)
 108:Generated_Source\PSoC5/Counter_17_PM.c ****         /* Save Counter's enable state */
 109:Generated_Source\PSoC5/Counter_17_PM.c ****         if(Counter_17_CTRL_ENABLE == (Counter_17_CONTROL & Counter_17_CTRL_ENABLE))
 101              		.loc 1 109 0
 102 0002 084B     		ldr	r3, .L13
 103 0004 1B78     		ldrb	r3, [r3]	@ zero_extendqisi2
 104 0006 13F0800F 		tst	r3, #128
 105 000a 03D0     		beq	.L10
 110:Generated_Source\PSoC5/Counter_17_PM.c ****         {
 111:Generated_Source\PSoC5/Counter_17_PM.c ****             /* Counter is enabled */
 112:Generated_Source\PSoC5/Counter_17_PM.c ****             Counter_17_backup.CounterEnableState = 1u;
 106              		.loc 1 112 0
 107 000c 0122     		movs	r2, #1
 108 000e 064B     		ldr	r3, .L13+4
 109 0010 1A70     		strb	r2, [r3]
 110 0012 02E0     		b	.L11
 111              	.L10:
 113:Generated_Source\PSoC5/Counter_17_PM.c ****         }
 114:Generated_Source\PSoC5/Counter_17_PM.c ****         else
 115:Generated_Source\PSoC5/Counter_17_PM.c ****         {
 116:Generated_Source\PSoC5/Counter_17_PM.c ****             /* Counter is disabled */
 117:Generated_Source\PSoC5/Counter_17_PM.c ****             Counter_17_backup.CounterEnableState = 0u;
ARM GAS  C:\Users\dph5ah\AppData\Local\Temp\cc1q34ya.s 			page 5


 112              		.loc 1 117 0
 113 0014 0022     		movs	r2, #0
 114 0016 044B     		ldr	r3, .L13+4
 115 0018 1A70     		strb	r2, [r3]
 116              	.L11:
 118:Generated_Source\PSoC5/Counter_17_PM.c ****         }
 119:Generated_Source\PSoC5/Counter_17_PM.c ****     #else
 120:Generated_Source\PSoC5/Counter_17_PM.c ****         Counter_17_backup.CounterEnableState = 1u;
 121:Generated_Source\PSoC5/Counter_17_PM.c ****         if(Counter_17_backup.CounterEnableState != 0u)
 122:Generated_Source\PSoC5/Counter_17_PM.c ****         {
 123:Generated_Source\PSoC5/Counter_17_PM.c ****             Counter_17_backup.CounterEnableState = 0u;
 124:Generated_Source\PSoC5/Counter_17_PM.c ****         }
 125:Generated_Source\PSoC5/Counter_17_PM.c ****     #endif /* (!Counter_17_ControlRegRemoved) */
 126:Generated_Source\PSoC5/Counter_17_PM.c ****     
 127:Generated_Source\PSoC5/Counter_17_PM.c ****     Counter_17_Stop();
 117              		.loc 1 127 0
 118 001a FFF7FEFF 		bl	Counter_17_Stop
 119              	.LVL4:
 128:Generated_Source\PSoC5/Counter_17_PM.c ****     Counter_17_SaveConfig();
 120              		.loc 1 128 0
 121 001e FFF7FEFF 		bl	Counter_17_SaveConfig
 122              	.LVL5:
 123 0022 08BD     		pop	{r3, pc}
 124              	.L14:
 125              		.align	2
 126              	.L13:
 127 0024 7A650040 		.word	1073767802
 128 0028 00000000 		.word	.LANCHOR0
 129              		.cfi_endproc
 130              	.LFE2:
 131              		.size	Counter_17_Sleep, .-Counter_17_Sleep
 132              		.section	.text.Counter_17_Wakeup,"ax",%progbits
 133              		.align	2
 134              		.global	Counter_17_Wakeup
 135              		.thumb
 136              		.thumb_func
 137              		.type	Counter_17_Wakeup, %function
 138              	Counter_17_Wakeup:
 139              	.LFB3:
 129:Generated_Source\PSoC5/Counter_17_PM.c **** }
 130:Generated_Source\PSoC5/Counter_17_PM.c **** 
 131:Generated_Source\PSoC5/Counter_17_PM.c **** 
 132:Generated_Source\PSoC5/Counter_17_PM.c **** /*******************************************************************************
 133:Generated_Source\PSoC5/Counter_17_PM.c **** * Function Name: Counter_17_Wakeup
 134:Generated_Source\PSoC5/Counter_17_PM.c **** ********************************************************************************
 135:Generated_Source\PSoC5/Counter_17_PM.c **** *
 136:Generated_Source\PSoC5/Counter_17_PM.c **** * Summary:
 137:Generated_Source\PSoC5/Counter_17_PM.c **** *  Restores and enables the user configuration
 138:Generated_Source\PSoC5/Counter_17_PM.c **** *  
 139:Generated_Source\PSoC5/Counter_17_PM.c **** * Parameters:  
 140:Generated_Source\PSoC5/Counter_17_PM.c **** *  void
 141:Generated_Source\PSoC5/Counter_17_PM.c **** *
 142:Generated_Source\PSoC5/Counter_17_PM.c **** * Return: 
 143:Generated_Source\PSoC5/Counter_17_PM.c **** *  void
 144:Generated_Source\PSoC5/Counter_17_PM.c **** *
 145:Generated_Source\PSoC5/Counter_17_PM.c **** * Global variables:
 146:Generated_Source\PSoC5/Counter_17_PM.c **** *  Counter_17_backup.enableState:  Is used to restore the enable state of 
ARM GAS  C:\Users\dph5ah\AppData\Local\Temp\cc1q34ya.s 			page 6


 147:Generated_Source\PSoC5/Counter_17_PM.c **** *  block on wakeup from sleep mode.
 148:Generated_Source\PSoC5/Counter_17_PM.c **** *
 149:Generated_Source\PSoC5/Counter_17_PM.c **** *******************************************************************************/
 150:Generated_Source\PSoC5/Counter_17_PM.c **** void Counter_17_Wakeup(void) 
 151:Generated_Source\PSoC5/Counter_17_PM.c **** {
 140              		.loc 1 151 0
 141              		.cfi_startproc
 142              		@ args = 0, pretend = 0, frame = 0
 143              		@ frame_needed = 0, uses_anonymous_args = 0
 144 0000 08B5     		push	{r3, lr}
 145              		.cfi_def_cfa_offset 8
 146              		.cfi_offset 3, -8
 147              		.cfi_offset 14, -4
 152:Generated_Source\PSoC5/Counter_17_PM.c ****     Counter_17_RestoreConfig();
 148              		.loc 1 152 0
 149 0002 FFF7FEFF 		bl	Counter_17_RestoreConfig
 150              	.LVL6:
 153:Generated_Source\PSoC5/Counter_17_PM.c ****     #if(!Counter_17_ControlRegRemoved)
 154:Generated_Source\PSoC5/Counter_17_PM.c ****         if(Counter_17_backup.CounterEnableState == 1u)
 151              		.loc 1 154 0
 152 0006 034B     		ldr	r3, .L18
 153 0008 1B78     		ldrb	r3, [r3]	@ zero_extendqisi2
 154 000a 012B     		cmp	r3, #1
 155 000c 01D1     		bne	.L15
 155:Generated_Source\PSoC5/Counter_17_PM.c ****         {
 156:Generated_Source\PSoC5/Counter_17_PM.c ****             /* Enable Counter's operation */
 157:Generated_Source\PSoC5/Counter_17_PM.c ****             Counter_17_Enable();
 156              		.loc 1 157 0
 157 000e FFF7FEFF 		bl	Counter_17_Enable
 158              	.LVL7:
 159              	.L15:
 160 0012 08BD     		pop	{r3, pc}
 161              	.L19:
 162              		.align	2
 163              	.L18:
 164 0014 00000000 		.word	.LANCHOR0
 165              		.cfi_endproc
 166              	.LFE3:
 167              		.size	Counter_17_Wakeup, .-Counter_17_Wakeup
 168              		.bss
 169              		.align	2
 170              		.set	.LANCHOR0,. + 0
 171              		.type	Counter_17_backup, %object
 172              		.size	Counter_17_backup, 3
 173              	Counter_17_backup:
 174 0000 000000   		.space	3
 175 0003 00       		.text
 176              	.Letext0:
 177              		.file 2 "Generated_Source\\PSoC5\\cytypes.h"
 178              		.file 3 "Generated_Source\\PSoC5\\Counter_17.h"