ARM GAS  C:\Users\dph5ah\AppData\Local\Temp\ccKCKem2.s 			page 1


   1              		.syntax unified
   2              		.cpu cortex-m3
   3              		.fpu softvfp
   4              		.eabi_attribute 20, 1
   5              		.eabi_attribute 21, 1
   6              		.eabi_attribute 23, 3
   7              		.eabi_attribute 24, 1
   8              		.eabi_attribute 25, 1
   9              		.eabi_attribute 26, 1
  10              		.eabi_attribute 30, 1
  11              		.eabi_attribute 34, 1
  12              		.eabi_attribute 18, 4
  13              		.thumb
  14              		.file	"main.c"
  15              		.text
  16              	.Ltext0:
  17              		.cfi_sections	.debug_frame
  18              		.section	.text.MyISR_1,"ax",%progbits
  19              		.align	2
  20              		.global	MyISR_1
  21              		.thumb
  22              		.thumb_func
  23              		.type	MyISR_1, %function
  24              	MyISR_1:
  25              	.LFB63:
  26              		.file 1 "main.c"
   1:main.c        **** /* ========================================
   2:main.c        ****  *
   3:main.c        ****  * Copyright YOUR COMPANY, THE YEAR
   4:main.c        ****  * All Rights Reserved
   5:main.c        ****  * UNPUBLISHED, LICENSED SOFTWARE.
   6:main.c        ****  *
   7:main.c        ****  * CONFIDENTIAL AND PROPRIETARY INFORMATION
   8:main.c        ****  * WHICH IS THE PROPERTY OF your company.
   9:main.c        ****  *
  10:main.c        ****  * ========================================
  11:main.c        **** */
  12:main.c        **** #include "project.h"
  13:main.c        **** #include <stdio.h>
  14:main.c        **** 
  15:main.c        **** char TransmitBuffer[255]="";
  16:main.c        **** int rx_flag=0;
  17:main.c        **** int datain=0;
  18:main.c        **** 
  19:main.c        **** int count1=0;
  20:main.c        **** int count2=0;
  21:main.c        **** int count3=0;
  22:main.c        **** int count4=0;
  23:main.c        **** int count5=0;
  24:main.c        **** int count6=0;
  25:main.c        **** int count7=0;
  26:main.c        **** int count8=0;
  27:main.c        **** int count9=0;
  28:main.c        **** int count10=0;
  29:main.c        **** int count11=0;
  30:main.c        **** int count12=0;
  31:main.c        **** int count13=0;
ARM GAS  C:\Users\dph5ah\AppData\Local\Temp\ccKCKem2.s 			page 2


  32:main.c        **** int total=0;
  33:main.c        **** 
  34:main.c        **** CY_ISR(MyISR_1)
  35:main.c        **** {
  27              		.loc 1 35 0
  28              		.cfi_startproc
  29              		@ args = 0, pretend = 0, frame = 0
  30              		@ frame_needed = 0, uses_anonymous_args = 0
  31 0000 08B5     		push	{r3, lr}
  32              		.cfi_def_cfa_offset 8
  33              		.cfi_offset 3, -8
  34              		.cfi_offset 14, -4
  36:main.c        ****  count1++; 
  35              		.loc 1 36 0
  36 0002 034A     		ldr	r2, .L3
  37 0004 1368     		ldr	r3, [r2]
  38 0006 0133     		adds	r3, r3, #1
  39 0008 1360     		str	r3, [r2]
  37:main.c        ****  isr_1_sensor_ClearPending();
  40              		.loc 1 37 0
  41 000a FFF7FEFF 		bl	isr_1_sensor_ClearPending
  42              	.LVL0:
  43 000e 08BD     		pop	{r3, pc}
  44              	.L4:
  45              		.align	2
  46              	.L3:
  47 0010 00000000 		.word	.LANCHOR0
  48              		.cfi_endproc
  49              	.LFE63:
  50              		.size	MyISR_1, .-MyISR_1
  51              		.section	.text.MyISR_2,"ax",%progbits
  52              		.align	2
  53              		.global	MyISR_2
  54              		.thumb
  55              		.thumb_func
  56              		.type	MyISR_2, %function
  57              	MyISR_2:
  58              	.LFB64:
  38:main.c        **** }
  39:main.c        **** 
  40:main.c        **** CY_ISR(MyISR_2)
  41:main.c        **** {
  59              		.loc 1 41 0
  60              		.cfi_startproc
  61              		@ args = 0, pretend = 0, frame = 0
  62              		@ frame_needed = 0, uses_anonymous_args = 0
  63 0000 08B5     		push	{r3, lr}
  64              		.cfi_def_cfa_offset 8
  65              		.cfi_offset 3, -8
  66              		.cfi_offset 14, -4
  42:main.c        ****  count2++; 
  67              		.loc 1 42 0
  68 0002 034A     		ldr	r2, .L7
  69 0004 5368     		ldr	r3, [r2, #4]
  70 0006 0133     		adds	r3, r3, #1
  71 0008 5360     		str	r3, [r2, #4]
  43:main.c        ****  isr_2_sensor_ClearPending();
ARM GAS  C:\Users\dph5ah\AppData\Local\Temp\ccKCKem2.s 			page 3


  72              		.loc 1 43 0
  73 000a FFF7FEFF 		bl	isr_2_sensor_ClearPending
  74              	.LVL1:
  75 000e 08BD     		pop	{r3, pc}
  76              	.L8:
  77              		.align	2
  78              	.L7:
  79 0010 00000000 		.word	.LANCHOR0
  80              		.cfi_endproc
  81              	.LFE64:
  82              		.size	MyISR_2, .-MyISR_2
  83              		.section	.text.MyISR_3,"ax",%progbits
  84              		.align	2
  85              		.global	MyISR_3
  86              		.thumb
  87              		.thumb_func
  88              		.type	MyISR_3, %function
  89              	MyISR_3:
  90              	.LFB65:
  44:main.c        **** }
  45:main.c        **** CY_ISR(MyISR_3)
  46:main.c        **** {
  91              		.loc 1 46 0
  92              		.cfi_startproc
  93              		@ args = 0, pretend = 0, frame = 0
  94              		@ frame_needed = 0, uses_anonymous_args = 0
  95 0000 08B5     		push	{r3, lr}
  96              		.cfi_def_cfa_offset 8
  97              		.cfi_offset 3, -8
  98              		.cfi_offset 14, -4
  47:main.c        ****  count3++; 
  99              		.loc 1 47 0
 100 0002 034A     		ldr	r2, .L11
 101 0004 9368     		ldr	r3, [r2, #8]
 102 0006 0133     		adds	r3, r3, #1
 103 0008 9360     		str	r3, [r2, #8]
  48:main.c        ****  isr_3_sensor_ClearPending();
 104              		.loc 1 48 0
 105 000a FFF7FEFF 		bl	isr_3_sensor_ClearPending
 106              	.LVL2:
 107 000e 08BD     		pop	{r3, pc}
 108              	.L12:
 109              		.align	2
 110              	.L11:
 111 0010 00000000 		.word	.LANCHOR0
 112              		.cfi_endproc
 113              	.LFE65:
 114              		.size	MyISR_3, .-MyISR_3
 115              		.section	.text.MyISR_4,"ax",%progbits
 116              		.align	2
 117              		.global	MyISR_4
 118              		.thumb
 119              		.thumb_func
 120              		.type	MyISR_4, %function
 121              	MyISR_4:
 122              	.LFB66:
  49:main.c        **** }
ARM GAS  C:\Users\dph5ah\AppData\Local\Temp\ccKCKem2.s 			page 4


  50:main.c        **** CY_ISR(MyISR_4)
  51:main.c        **** {
 123              		.loc 1 51 0
 124              		.cfi_startproc
 125              		@ args = 0, pretend = 0, frame = 0
 126              		@ frame_needed = 0, uses_anonymous_args = 0
 127 0000 08B5     		push	{r3, lr}
 128              		.cfi_def_cfa_offset 8
 129              		.cfi_offset 3, -8
 130              		.cfi_offset 14, -4
  52:main.c        ****  count4++; 
 131              		.loc 1 52 0
 132 0002 034A     		ldr	r2, .L15
 133 0004 D368     		ldr	r3, [r2, #12]
 134 0006 0133     		adds	r3, r3, #1
 135 0008 D360     		str	r3, [r2, #12]
  53:main.c        ****  isr_4_sensor_ClearPending();
 136              		.loc 1 53 0
 137 000a FFF7FEFF 		bl	isr_4_sensor_ClearPending
 138              	.LVL3:
 139 000e 08BD     		pop	{r3, pc}
 140              	.L16:
 141              		.align	2
 142              	.L15:
 143 0010 00000000 		.word	.LANCHOR0
 144              		.cfi_endproc
 145              	.LFE66:
 146              		.size	MyISR_4, .-MyISR_4
 147              		.section	.text.MyISR_5,"ax",%progbits
 148              		.align	2
 149              		.global	MyISR_5
 150              		.thumb
 151              		.thumb_func
 152              		.type	MyISR_5, %function
 153              	MyISR_5:
 154              	.LFB67:
  54:main.c        **** }
  55:main.c        **** 
  56:main.c        **** CY_ISR(MyISR_5)
  57:main.c        **** {
 155              		.loc 1 57 0
 156              		.cfi_startproc
 157              		@ args = 0, pretend = 0, frame = 0
 158              		@ frame_needed = 0, uses_anonymous_args = 0
 159 0000 08B5     		push	{r3, lr}
 160              		.cfi_def_cfa_offset 8
 161              		.cfi_offset 3, -8
 162              		.cfi_offset 14, -4
  58:main.c        ****  count5++; 
 163              		.loc 1 58 0
 164 0002 034A     		ldr	r2, .L19
 165 0004 1369     		ldr	r3, [r2, #16]
 166 0006 0133     		adds	r3, r3, #1
 167 0008 1361     		str	r3, [r2, #16]
  59:main.c        ****  isr_5_sensor_ClearPending();
 168              		.loc 1 59 0
 169 000a FFF7FEFF 		bl	isr_5_sensor_ClearPending
ARM GAS  C:\Users\dph5ah\AppData\Local\Temp\ccKCKem2.s 			page 5


 170              	.LVL4:
 171 000e 08BD     		pop	{r3, pc}
 172              	.L20:
 173              		.align	2
 174              	.L19:
 175 0010 00000000 		.word	.LANCHOR0
 176              		.cfi_endproc
 177              	.LFE67:
 178              		.size	MyISR_5, .-MyISR_5
 179              		.section	.text.MyISR_6,"ax",%progbits
 180              		.align	2
 181              		.global	MyISR_6
 182              		.thumb
 183              		.thumb_func
 184              		.type	MyISR_6, %function
 185              	MyISR_6:
 186              	.LFB68:
  60:main.c        **** }
  61:main.c        **** 
  62:main.c        **** CY_ISR(MyISR_6)
  63:main.c        **** {
 187              		.loc 1 63 0
 188              		.cfi_startproc
 189              		@ args = 0, pretend = 0, frame = 0
 190              		@ frame_needed = 0, uses_anonymous_args = 0
 191 0000 08B5     		push	{r3, lr}
 192              		.cfi_def_cfa_offset 8
 193              		.cfi_offset 3, -8
 194              		.cfi_offset 14, -4
  64:main.c        ****  count6++; 
 195              		.loc 1 64 0
 196 0002 034A     		ldr	r2, .L23
 197 0004 5369     		ldr	r3, [r2, #20]
 198 0006 0133     		adds	r3, r3, #1
 199 0008 5361     		str	r3, [r2, #20]
  65:main.c        ****  isr_6_sensor_ClearPending();
 200              		.loc 1 65 0
 201 000a FFF7FEFF 		bl	isr_6_sensor_ClearPending
 202              	.LVL5:
 203 000e 08BD     		pop	{r3, pc}
 204              	.L24:
 205              		.align	2
 206              	.L23:
 207 0010 00000000 		.word	.LANCHOR0
 208              		.cfi_endproc
 209              	.LFE68:
 210              		.size	MyISR_6, .-MyISR_6
 211              		.section	.text.MyISR_7,"ax",%progbits
 212              		.align	2
 213              		.global	MyISR_7
 214              		.thumb
 215              		.thumb_func
 216              		.type	MyISR_7, %function
 217              	MyISR_7:
 218              	.LFB69:
  66:main.c        **** 
  67:main.c        **** }
ARM GAS  C:\Users\dph5ah\AppData\Local\Temp\ccKCKem2.s 			page 6


  68:main.c        **** 
  69:main.c        **** CY_ISR(MyISR_7)
  70:main.c        **** {
 219              		.loc 1 70 0
 220              		.cfi_startproc
 221              		@ args = 0, pretend = 0, frame = 0
 222              		@ frame_needed = 0, uses_anonymous_args = 0
 223 0000 08B5     		push	{r3, lr}
 224              		.cfi_def_cfa_offset 8
 225              		.cfi_offset 3, -8
 226              		.cfi_offset 14, -4
  71:main.c        ****  count7++; 
 227              		.loc 1 71 0
 228 0002 034A     		ldr	r2, .L27
 229 0004 9369     		ldr	r3, [r2, #24]
 230 0006 0133     		adds	r3, r3, #1
 231 0008 9361     		str	r3, [r2, #24]
  72:main.c        ****  isr_7_sensor_ClearPending();
 232              		.loc 1 72 0
 233 000a FFF7FEFF 		bl	isr_7_sensor_ClearPending
 234              	.LVL6:
 235 000e 08BD     		pop	{r3, pc}
 236              	.L28:
 237              		.align	2
 238              	.L27:
 239 0010 00000000 		.word	.LANCHOR0
 240              		.cfi_endproc
 241              	.LFE69:
 242              		.size	MyISR_7, .-MyISR_7
 243              		.section	.text.MyISR_8,"ax",%progbits
 244              		.align	2
 245              		.global	MyISR_8
 246              		.thumb
 247              		.thumb_func
 248              		.type	MyISR_8, %function
 249              	MyISR_8:
 250              	.LFB70:
  73:main.c        **** }
  74:main.c        **** CY_ISR(MyISR_8)
  75:main.c        **** {
 251              		.loc 1 75 0
 252              		.cfi_startproc
 253              		@ args = 0, pretend = 0, frame = 0
 254              		@ frame_needed = 0, uses_anonymous_args = 0
 255 0000 08B5     		push	{r3, lr}
 256              		.cfi_def_cfa_offset 8
 257              		.cfi_offset 3, -8
 258              		.cfi_offset 14, -4
  76:main.c        ****  count8++; 
 259              		.loc 1 76 0
 260 0002 034A     		ldr	r2, .L31
 261 0004 D369     		ldr	r3, [r2, #28]
 262 0006 0133     		adds	r3, r3, #1
 263 0008 D361     		str	r3, [r2, #28]
  77:main.c        ****  isr_8_sensor_ClearPending();
 264              		.loc 1 77 0
 265 000a FFF7FEFF 		bl	isr_8_sensor_ClearPending
ARM GAS  C:\Users\dph5ah\AppData\Local\Temp\ccKCKem2.s 			page 7


 266              	.LVL7:
 267 000e 08BD     		pop	{r3, pc}
 268              	.L32:
 269              		.align	2
 270              	.L31:
 271 0010 00000000 		.word	.LANCHOR0
 272              		.cfi_endproc
 273              	.LFE70:
 274              		.size	MyISR_8, .-MyISR_8
 275              		.section	.text.MyISR_9,"ax",%progbits
 276              		.align	2
 277              		.global	MyISR_9
 278              		.thumb
 279              		.thumb_func
 280              		.type	MyISR_9, %function
 281              	MyISR_9:
 282              	.LFB71:
  78:main.c        **** }
  79:main.c        **** CY_ISR(MyISR_9)
  80:main.c        **** {
 283              		.loc 1 80 0
 284              		.cfi_startproc
 285              		@ args = 0, pretend = 0, frame = 0
 286              		@ frame_needed = 0, uses_anonymous_args = 0
 287 0000 08B5     		push	{r3, lr}
 288              		.cfi_def_cfa_offset 8
 289              		.cfi_offset 3, -8
 290              		.cfi_offset 14, -4
  81:main.c        ****  count9++; 
 291              		.loc 1 81 0
 292 0002 034A     		ldr	r2, .L35
 293 0004 136A     		ldr	r3, [r2, #32]
 294 0006 0133     		adds	r3, r3, #1
 295 0008 1362     		str	r3, [r2, #32]
  82:main.c        ****  isr_9_sensor_ClearPending();
 296              		.loc 1 82 0
 297 000a FFF7FEFF 		bl	isr_9_sensor_ClearPending
 298              	.LVL8:
 299 000e 08BD     		pop	{r3, pc}
 300              	.L36:
 301              		.align	2
 302              	.L35:
 303 0010 00000000 		.word	.LANCHOR0
 304              		.cfi_endproc
 305              	.LFE71:
 306              		.size	MyISR_9, .-MyISR_9
 307              		.section	.text.MyISR_10,"ax",%progbits
 308              		.align	2
 309              		.global	MyISR_10
 310              		.thumb
 311              		.thumb_func
 312              		.type	MyISR_10, %function
 313              	MyISR_10:
 314              	.LFB72:
  83:main.c        **** }
  84:main.c        **** 
  85:main.c        **** CY_ISR(MyISR_10)
ARM GAS  C:\Users\dph5ah\AppData\Local\Temp\ccKCKem2.s 			page 8


  86:main.c        **** {
 315              		.loc 1 86 0
 316              		.cfi_startproc
 317              		@ args = 0, pretend = 0, frame = 0
 318              		@ frame_needed = 0, uses_anonymous_args = 0
 319 0000 08B5     		push	{r3, lr}
 320              		.cfi_def_cfa_offset 8
 321              		.cfi_offset 3, -8
 322              		.cfi_offset 14, -4
  87:main.c        ****  count10++; 
 323              		.loc 1 87 0
 324 0002 034A     		ldr	r2, .L39
 325 0004 536A     		ldr	r3, [r2, #36]
 326 0006 0133     		adds	r3, r3, #1
 327 0008 5362     		str	r3, [r2, #36]
  88:main.c        ****  isr_10_sensor_ClearPending();
 328              		.loc 1 88 0
 329 000a FFF7FEFF 		bl	isr_10_sensor_ClearPending
 330              	.LVL9:
 331 000e 08BD     		pop	{r3, pc}
 332              	.L40:
 333              		.align	2
 334              	.L39:
 335 0010 00000000 		.word	.LANCHOR0
 336              		.cfi_endproc
 337              	.LFE72:
 338              		.size	MyISR_10, .-MyISR_10
 339              		.section	.text.MyISR_11,"ax",%progbits
 340              		.align	2
 341              		.global	MyISR_11
 342              		.thumb
 343              		.thumb_func
 344              		.type	MyISR_11, %function
 345              	MyISR_11:
 346              	.LFB73:
  89:main.c        **** }
  90:main.c        **** 
  91:main.c        **** CY_ISR(MyISR_11)
  92:main.c        **** {
 347              		.loc 1 92 0
 348              		.cfi_startproc
 349              		@ args = 0, pretend = 0, frame = 0
 350              		@ frame_needed = 0, uses_anonymous_args = 0
 351 0000 08B5     		push	{r3, lr}
 352              		.cfi_def_cfa_offset 8
 353              		.cfi_offset 3, -8
 354              		.cfi_offset 14, -4
  93:main.c        ****  count11++; 
 355              		.loc 1 93 0
 356 0002 034A     		ldr	r2, .L43
 357 0004 936A     		ldr	r3, [r2, #40]
 358 0006 0133     		adds	r3, r3, #1
 359 0008 9362     		str	r3, [r2, #40]
  94:main.c        ****  isr_11_sensor_ClearPending();
 360              		.loc 1 94 0
 361 000a FFF7FEFF 		bl	isr_11_sensor_ClearPending
 362              	.LVL10:
ARM GAS  C:\Users\dph5ah\AppData\Local\Temp\ccKCKem2.s 			page 9


 363 000e 08BD     		pop	{r3, pc}
 364              	.L44:
 365              		.align	2
 366              	.L43:
 367 0010 00000000 		.word	.LANCHOR0
 368              		.cfi_endproc
 369              	.LFE73:
 370              		.size	MyISR_11, .-MyISR_11
 371              		.section	.text.MyISR_12,"ax",%progbits
 372              		.align	2
 373              		.global	MyISR_12
 374              		.thumb
 375              		.thumb_func
 376              		.type	MyISR_12, %function
 377              	MyISR_12:
 378              	.LFB74:
  95:main.c        **** }
  96:main.c        **** 
  97:main.c        **** CY_ISR(MyISR_12)
  98:main.c        **** {
 379              		.loc 1 98 0
 380              		.cfi_startproc
 381              		@ args = 0, pretend = 0, frame = 0
 382              		@ frame_needed = 0, uses_anonymous_args = 0
 383 0000 08B5     		push	{r3, lr}
 384              		.cfi_def_cfa_offset 8
 385              		.cfi_offset 3, -8
 386              		.cfi_offset 14, -4
  99:main.c        ****  count12++; 
 387              		.loc 1 99 0
 388 0002 034A     		ldr	r2, .L47
 389 0004 D36A     		ldr	r3, [r2, #44]
 390 0006 0133     		adds	r3, r3, #1
 391 0008 D362     		str	r3, [r2, #44]
 100:main.c        ****  isr_12_sensor_ClearPending();
 392              		.loc 1 100 0
 393 000a FFF7FEFF 		bl	isr_12_sensor_ClearPending
 394              	.LVL11:
 395 000e 08BD     		pop	{r3, pc}
 396              	.L48:
 397              		.align	2
 398              	.L47:
 399 0010 00000000 		.word	.LANCHOR0
 400              		.cfi_endproc
 401              	.LFE74:
 402              		.size	MyISR_12, .-MyISR_12
 403              		.section	.text.MyISR_13,"ax",%progbits
 404              		.align	2
 405              		.global	MyISR_13
 406              		.thumb
 407              		.thumb_func
 408              		.type	MyISR_13, %function
 409              	MyISR_13:
 410              	.LFB75:
 101:main.c        **** }
 102:main.c        **** CY_ISR(MyISR_13)
 103:main.c        **** {
ARM GAS  C:\Users\dph5ah\AppData\Local\Temp\ccKCKem2.s 			page 10


 411              		.loc 1 103 0
 412              		.cfi_startproc
 413              		@ args = 0, pretend = 0, frame = 0
 414              		@ frame_needed = 0, uses_anonymous_args = 0
 415 0000 08B5     		push	{r3, lr}
 416              		.cfi_def_cfa_offset 8
 417              		.cfi_offset 3, -8
 418              		.cfi_offset 14, -4
 104:main.c        ****  count13++; 
 419              		.loc 1 104 0
 420 0002 034A     		ldr	r2, .L51
 421 0004 136B     		ldr	r3, [r2, #48]
 422 0006 0133     		adds	r3, r3, #1
 423 0008 1363     		str	r3, [r2, #48]
 105:main.c        ****  isr_13_sensor_ClearPending();
 424              		.loc 1 105 0
 425 000a FFF7FEFF 		bl	isr_13_sensor_ClearPending
 426              	.LVL12:
 427 000e 08BD     		pop	{r3, pc}
 428              	.L52:
 429              		.align	2
 430              	.L51:
 431 0010 00000000 		.word	.LANCHOR0
 432              		.cfi_endproc
 433              	.LFE75:
 434              		.size	MyISR_13, .-MyISR_13
 435              		.section	.text.MyUART_RX_INTERRUPT,"ax",%progbits
 436              		.align	2
 437              		.global	MyUART_RX_INTERRUPT
 438              		.thumb
 439              		.thumb_func
 440              		.type	MyUART_RX_INTERRUPT, %function
 441              	MyUART_RX_INTERRUPT:
 442              	.LFB76:
 106:main.c        **** }
 107:main.c        **** 
 108:main.c        **** CY_ISR(MyUART_RX_INTERRUPT)
 109:main.c        **** {
 443              		.loc 1 109 0
 444              		.cfi_startproc
 445              		@ args = 0, pretend = 0, frame = 0
 446              		@ frame_needed = 0, uses_anonymous_args = 0
 447 0000 08B5     		push	{r3, lr}
 448              		.cfi_def_cfa_offset 8
 449              		.cfi_offset 3, -8
 450              		.cfi_offset 14, -4
 110:main.c        ****  datain=UART_1_GetChar();
 451              		.loc 1 110 0
 452 0002 FFF7FEFF 		bl	UART_1_GetChar
 453              	.LVL13:
 454 0006 024B     		ldr	r3, .L55
 455 0008 5863     		str	r0, [r3, #52]
 111:main.c        ****  rx_flag=1; 
 456              		.loc 1 111 0
 457 000a 0122     		movs	r2, #1
 458 000c 9A63     		str	r2, [r3, #56]
 459 000e 08BD     		pop	{r3, pc}
ARM GAS  C:\Users\dph5ah\AppData\Local\Temp\ccKCKem2.s 			page 11


 460              	.L56:
 461              		.align	2
 462              	.L55:
 463 0010 00000000 		.word	.LANCHOR0
 464              		.cfi_endproc
 465              	.LFE76:
 466              		.size	MyUART_RX_INTERRUPT, .-MyUART_RX_INTERRUPT
 467              		.section	.text.Clear_counters,"ax",%progbits
 468              		.align	2
 469              		.global	Clear_counters
 470              		.thumb
 471              		.thumb_func
 472              		.type	Clear_counters, %function
 473              	Clear_counters:
 474              	.LFB77:
 112:main.c        ****  }
 113:main.c        **** 
 114:main.c        **** void Clear_counters(void)
 115:main.c        **** {
 475              		.loc 1 115 0
 476              		.cfi_startproc
 477              		@ args = 0, pretend = 0, frame = 0
 478              		@ frame_needed = 0, uses_anonymous_args = 0
 479              		@ link register save eliminated.
 116:main.c        ****     count1=0;
 480              		.loc 1 116 0
 481 0000 084B     		ldr	r3, .L58
 482 0002 0022     		movs	r2, #0
 483 0004 1A60     		str	r2, [r3]
 117:main.c        ****     count2=0;
 484              		.loc 1 117 0
 485 0006 5A60     		str	r2, [r3, #4]
 118:main.c        ****     count3=0;
 486              		.loc 1 118 0
 487 0008 9A60     		str	r2, [r3, #8]
 119:main.c        ****     count4=0;
 488              		.loc 1 119 0
 489 000a DA60     		str	r2, [r3, #12]
 120:main.c        ****     count5=0;
 490              		.loc 1 120 0
 491 000c 1A61     		str	r2, [r3, #16]
 121:main.c        ****     count6=0;
 492              		.loc 1 121 0
 493 000e 5A61     		str	r2, [r3, #20]
 122:main.c        ****     count7=0;
 494              		.loc 1 122 0
 495 0010 9A61     		str	r2, [r3, #24]
 123:main.c        ****     count8=0;
 496              		.loc 1 123 0
 497 0012 DA61     		str	r2, [r3, #28]
 124:main.c        ****     count9=0;
 498              		.loc 1 124 0
 499 0014 1A62     		str	r2, [r3, #32]
 125:main.c        ****     count10=0;
 500              		.loc 1 125 0
 501 0016 5A62     		str	r2, [r3, #36]
 126:main.c        ****     count11=0;
ARM GAS  C:\Users\dph5ah\AppData\Local\Temp\ccKCKem2.s 			page 12


 502              		.loc 1 126 0
 503 0018 9A62     		str	r2, [r3, #40]
 127:main.c        ****     count12=0;
 504              		.loc 1 127 0
 505 001a DA62     		str	r2, [r3, #44]
 128:main.c        ****     count13=0;
 506              		.loc 1 128 0
 507 001c 1A63     		str	r2, [r3, #48]
 129:main.c        ****     total=0;
 508              		.loc 1 129 0
 509 001e DA63     		str	r2, [r3, #60]
 510 0020 7047     		bx	lr
 511              	.L59:
 512 0022 00BF     		.align	2
 513              	.L58:
 514 0024 00000000 		.word	.LANCHOR0
 515              		.cfi_endproc
 516              	.LFE77:
 517              		.size	Clear_counters, .-Clear_counters
 518              		.section	.text.Send_Couters,"ax",%progbits
 519              		.align	2
 520              		.global	Send_Couters
 521              		.thumb
 522              		.thumb_func
 523              		.type	Send_Couters, %function
 524              	Send_Couters:
 525              	.LFB78:
 130:main.c        **** }
 131:main.c        **** void Send_Couters(void)
 132:main.c        **** {
 526              		.loc 1 132 0
 527              		.cfi_startproc
 528              		@ args = 0, pretend = 0, frame = 0
 529              		@ frame_needed = 0, uses_anonymous_args = 0
 530 0000 2DE9F04F 		push	{r4, r5, r6, r7, r8, r9, r10, fp, lr}
 531              		.cfi_def_cfa_offset 36
 532              		.cfi_offset 4, -36
 533              		.cfi_offset 5, -32
 534              		.cfi_offset 6, -28
 535              		.cfi_offset 7, -24
 536              		.cfi_offset 8, -20
 537              		.cfi_offset 9, -16
 538              		.cfi_offset 10, -12
 539              		.cfi_offset 11, -8
 540              		.cfi_offset 14, -4
 541 0004 8DB0     		sub	sp, sp, #52
 542              		.cfi_def_cfa_offset 88
 133:main.c        **** /* Send out the data */ 
 134:main.c        **** total=count1+count2+count3+count4+count5+count6+count7+count8+count9+count10+count11+count12+count1
 543              		.loc 1 134 0
 544 0006 1F4C     		ldr	r4, .L62
 545 0008 2268     		ldr	r2, [r4]
 546 000a 6368     		ldr	r3, [r4, #4]
 547 000c D118     		adds	r1, r2, r3
 548 000e D4F808B0 		ldr	fp, [r4, #8]
 549 0012 5944     		add	r1, r1, fp
 550 0014 D4F80CA0 		ldr	r10, [r4, #12]
ARM GAS  C:\Users\dph5ah\AppData\Local\Temp\ccKCKem2.s 			page 13


 551 0018 5144     		add	r1, r1, r10
 552 001a D4F81090 		ldr	r9, [r4, #16]
 553 001e 4944     		add	r1, r1, r9
 554 0020 D4F81480 		ldr	r8, [r4, #20]
 555 0024 4144     		add	r1, r1, r8
 556 0026 D4F818C0 		ldr	ip, [r4, #24]
 557 002a 6144     		add	r1, r1, ip
 558 002c D4F81CE0 		ldr	lr, [r4, #28]
 559 0030 7144     		add	r1, r1, lr
 560 0032 276A     		ldr	r7, [r4, #32]
 561 0034 3944     		add	r1, r1, r7
 562 0036 666A     		ldr	r6, [r4, #36]
 563 0038 3144     		add	r1, r1, r6
 564 003a A56A     		ldr	r5, [r4, #40]
 565 003c 2944     		add	r1, r1, r5
 566 003e E06A     		ldr	r0, [r4, #44]
 567 0040 0990     		str	r0, [sp, #36]
 568 0042 0818     		adds	r0, r1, r0
 569 0044 216B     		ldr	r1, [r4, #48]
 570 0046 0A91     		str	r1, [sp, #40]
 571 0048 0844     		add	r0, r0, r1
 572 004a E063     		str	r0, [r4, #60]
 135:main.c        **** sprintf(TransmitBuffer, "%d,%d,%d,%d,%d,%d,%d,%d,%d,%d,%d,%d,%d > %d\r\n", count1,count2,count3,cou
 573              		.loc 1 135 0
 574 004c 4034     		adds	r4, r4, #64
 575 004e CDF800B0 		str	fp, [sp]
 576 0052 CDF804A0 		str	r10, [sp, #4]
 577 0056 CDF80890 		str	r9, [sp, #8]
 578 005a CDF80C80 		str	r8, [sp, #12]
 579 005e CDF810C0 		str	ip, [sp, #16]
 580 0062 CDF814E0 		str	lr, [sp, #20]
 581 0066 0697     		str	r7, [sp, #24]
 582 0068 0796     		str	r6, [sp, #28]
 583 006a 0895     		str	r5, [sp, #32]
 584 006c 0B90     		str	r0, [sp, #44]
 585 006e 2046     		mov	r0, r4
 586 0070 0549     		ldr	r1, .L62+4
 587 0072 FFF7FEFF 		bl	sprintf
 588              	.LVL14:
 136:main.c        **** UART_1_PutString(TransmitBuffer);   
 589              		.loc 1 136 0
 590 0076 2046     		mov	r0, r4
 591 0078 FFF7FEFF 		bl	UART_1_PutString
 592              	.LVL15:
 137:main.c        **** }
 593              		.loc 1 137 0
 594 007c 0DB0     		add	sp, sp, #52
 595              		.cfi_def_cfa_offset 36
 596              		@ sp needed
 597 007e BDE8F08F 		pop	{r4, r5, r6, r7, r8, r9, r10, fp, pc}
 598              	.L63:
 599 0082 00BF     		.align	2
 600              	.L62:
 601 0084 00000000 		.word	.LANCHOR0
 602 0088 00000000 		.word	.LC0
 603              		.cfi_endproc
 604              	.LFE78:
ARM GAS  C:\Users\dph5ah\AppData\Local\Temp\ccKCKem2.s 			page 14


 605              		.size	Send_Couters, .-Send_Couters
 606              		.section	.text.main,"ax",%progbits
 607              		.align	2
 608              		.global	main
 609              		.thumb
 610              		.thumb_func
 611              		.type	main, %function
 612              	main:
 613              	.LFB79:
 138:main.c        **** 
 139:main.c        **** int main(void)
 140:main.c        **** {
 614              		.loc 1 140 0
 615              		.cfi_startproc
 616              		@ Volatile: function does not return.
 617              		@ args = 0, pretend = 0, frame = 0
 618              		@ frame_needed = 0, uses_anonymous_args = 0
 619 0000 08B5     		push	{r3, lr}
 620              		.cfi_def_cfa_offset 8
 621              		.cfi_offset 3, -8
 622              		.cfi_offset 14, -4
 141:main.c        ****     CyGlobalIntEnable; /* Enable global interrupts. */
 623              		.loc 1 141 0
 624              	@ 141 "main.c" 1
 625 0002 62B6     		CPSIE   i
 626              	@ 0 "" 2
 142:main.c        **** 
 143:main.c        ****     /* Place your initialization/startup code here (e.g. MyInst_Start()) */
 144:main.c        ****    
 145:main.c        ****     isr_1_sensor_StartEx(MyISR_1);
 627              		.loc 1 145 0
 628              		.thumb
 629 0004 2148     		ldr	r0, .L71
 630 0006 FFF7FEFF 		bl	isr_1_sensor_StartEx
 631              	.LVL16:
 146:main.c        ****     isr_2_sensor_StartEx(MyISR_2);
 632              		.loc 1 146 0
 633 000a 2148     		ldr	r0, .L71+4
 634 000c FFF7FEFF 		bl	isr_2_sensor_StartEx
 635              	.LVL17:
 147:main.c        ****     isr_3_sensor_StartEx(MyISR_3);
 636              		.loc 1 147 0
 637 0010 2048     		ldr	r0, .L71+8
 638 0012 FFF7FEFF 		bl	isr_3_sensor_StartEx
 639              	.LVL18:
 148:main.c        ****     isr_4_sensor_StartEx(MyISR_4);
 640              		.loc 1 148 0
 641 0016 2048     		ldr	r0, .L71+12
 642 0018 FFF7FEFF 		bl	isr_4_sensor_StartEx
 643              	.LVL19:
 149:main.c        ****     isr_5_sensor_StartEx(MyISR_5);
 644              		.loc 1 149 0
 645 001c 1F48     		ldr	r0, .L71+16
 646 001e FFF7FEFF 		bl	isr_5_sensor_StartEx
 647              	.LVL20:
 150:main.c        ****     isr_6_sensor_StartEx(MyISR_6);
 648              		.loc 1 150 0
ARM GAS  C:\Users\dph5ah\AppData\Local\Temp\ccKCKem2.s 			page 15


 649 0022 1F48     		ldr	r0, .L71+20
 650 0024 FFF7FEFF 		bl	isr_6_sensor_StartEx
 651              	.LVL21:
 151:main.c        ****     isr_7_sensor_StartEx(MyISR_7);
 652              		.loc 1 151 0
 653 0028 1E48     		ldr	r0, .L71+24
 654 002a FFF7FEFF 		bl	isr_7_sensor_StartEx
 655              	.LVL22:
 152:main.c        ****     isr_8_sensor_StartEx(MyISR_8);
 656              		.loc 1 152 0
 657 002e 1E48     		ldr	r0, .L71+28
 658 0030 FFF7FEFF 		bl	isr_8_sensor_StartEx
 659              	.LVL23:
 153:main.c        ****     isr_9_sensor_StartEx(MyISR_9);
 660              		.loc 1 153 0
 661 0034 1D48     		ldr	r0, .L71+32
 662 0036 FFF7FEFF 		bl	isr_9_sensor_StartEx
 663              	.LVL24:
 154:main.c        ****     isr_10_sensor_StartEx(MyISR_10);
 664              		.loc 1 154 0
 665 003a 1D48     		ldr	r0, .L71+36
 666 003c FFF7FEFF 		bl	isr_10_sensor_StartEx
 667              	.LVL25:
 155:main.c        ****     isr_11_sensor_StartEx(MyISR_11);
 668              		.loc 1 155 0
 669 0040 1C48     		ldr	r0, .L71+40
 670 0042 FFF7FEFF 		bl	isr_11_sensor_StartEx
 671              	.LVL26:
 156:main.c        ****     isr_12_sensor_StartEx(MyISR_12);
 672              		.loc 1 156 0
 673 0046 1C48     		ldr	r0, .L71+44
 674 0048 FFF7FEFF 		bl	isr_12_sensor_StartEx
 675              	.LVL27:
 157:main.c        ****     isr_13_sensor_StartEx(MyISR_13);
 676              		.loc 1 157 0
 677 004c 1B48     		ldr	r0, .L71+48
 678 004e FFF7FEFF 		bl	isr_13_sensor_StartEx
 679              	.LVL28:
 158:main.c        ****     serial_in_buff_StartEx(MyUART_RX_INTERRUPT);
 680              		.loc 1 158 0
 681 0052 1B48     		ldr	r0, .L71+52
 682 0054 FFF7FEFF 		bl	serial_in_buff_StartEx
 683              	.LVL29:
 159:main.c        ****    
 160:main.c        ****     UART_1_Start();
 684              		.loc 1 160 0
 685 0058 FFF7FEFF 		bl	UART_1_Start
 686              	.LVL30:
 161:main.c        ****     UART_1_PutString("Galton board couter\r\n"); 
 687              		.loc 1 161 0
 688 005c 1948     		ldr	r0, .L71+56
 689 005e FFF7FEFF 		bl	UART_1_PutString
 690              	.LVL31:
 691              	.L65:
 162:main.c        ****    
 163:main.c        ****     
 164:main.c        ****     for(;;)
ARM GAS  C:\Users\dph5ah\AppData\Local\Temp\ccKCKem2.s 			page 16


 165:main.c        ****     {
 166:main.c        ****         /* Place your application code here. */
 167:main.c        ****         
 168:main.c        ****     if (rx_flag==1)
 692              		.loc 1 168 0
 693 0062 194B     		ldr	r3, .L71+60
 694 0064 9B6B     		ldr	r3, [r3, #56]
 695 0066 012B     		cmp	r3, #1
 696 0068 FBD1     		bne	.L65
 169:main.c        ****         {
 170:main.c        ****         switch(datain)
 697              		.loc 1 170 0
 698 006a 174B     		ldr	r3, .L71+60
 699 006c 5B6B     		ldr	r3, [r3, #52]
 700 006e 432B     		cmp	r3, #67
 701 0070 02D0     		beq	.L67
 702 0072 532B     		cmp	r3, #83
 703 0074 03D0     		beq	.L68
 704 0076 04E0     		b	.L66
 705              	.L67:
 171:main.c        ****         {
 172:main.c        ****          case 'C':
 173:main.c        ****          Clear_counters();
 706              		.loc 1 173 0
 707 0078 FFF7FEFF 		bl	Clear_counters
 708              	.LVL32:
 174:main.c        ****          break;
 709              		.loc 1 174 0
 710 007c 01E0     		b	.L66
 711              	.L68:
 175:main.c        ****          
 176:main.c        ****          case 'S':
 177:main.c        ****          Send_Couters();
 712              		.loc 1 177 0
 713 007e FFF7FEFF 		bl	Send_Couters
 714              	.LVL33:
 715              	.L66:
 178:main.c        ****          break;   
 179:main.c        ****          }
 180:main.c        ****         rx_flag=0;
 716              		.loc 1 180 0
 717 0082 0022     		movs	r2, #0
 718 0084 104B     		ldr	r3, .L71+60
 719 0086 9A63     		str	r2, [r3, #56]
 720 0088 EBE7     		b	.L65
 721              	.L72:
 722 008a 00BF     		.align	2
 723              	.L71:
 724 008c 00000000 		.word	MyISR_1
 725 0090 00000000 		.word	MyISR_2
 726 0094 00000000 		.word	MyISR_3
 727 0098 00000000 		.word	MyISR_4
 728 009c 00000000 		.word	MyISR_5
 729 00a0 00000000 		.word	MyISR_6
 730 00a4 00000000 		.word	MyISR_7
 731 00a8 00000000 		.word	MyISR_8
 732 00ac 00000000 		.word	MyISR_9
ARM GAS  C:\Users\dph5ah\AppData\Local\Temp\ccKCKem2.s 			page 17


 733 00b0 00000000 		.word	MyISR_10
 734 00b4 00000000 		.word	MyISR_11
 735 00b8 00000000 		.word	MyISR_12
 736 00bc 00000000 		.word	MyISR_13
 737 00c0 00000000 		.word	MyUART_RX_INTERRUPT
 738 00c4 30000000 		.word	.LC1
 739 00c8 00000000 		.word	.LANCHOR0
 740              		.cfi_endproc
 741              	.LFE79:
 742              		.size	main, .-main
 743              		.global	total
 744              		.global	count13
 745              		.global	count12
 746              		.global	count11
 747              		.global	count10
 748              		.global	count9
 749              		.global	count8
 750              		.global	count7
 751              		.global	count6
 752              		.global	count5
 753              		.global	count4
 754              		.global	count3
 755              		.global	count2
 756              		.global	count1
 757              		.global	datain
 758              		.global	rx_flag
 759              		.global	TransmitBuffer
 760              		.section	.rodata.str1.4,"aMS",%progbits,1
 761              		.align	2
 762              	.LC0:
 763 0000 25642C25 		.ascii	"%d,%d,%d,%d,%d,%d,%d,%d,%d,%d,%d,%d,%d > %d\015\012"
 763      642C2564 
 763      2C25642C 
 763      25642C25 
 763      642C2564 
 764 002d 00       		.ascii	"\000"
 765 002e 0000     		.space	2
 766              	.LC1:
 767 0030 47616C74 		.ascii	"Galton board couter\015\012\000"
 767      6F6E2062 
 767      6F617264 
 767      20636F75 
 767      7465720D 
 768 0046 0000     		.bss
 769              		.align	2
 770              		.set	.LANCHOR0,. + 0
 771              		.type	count1, %object
 772              		.size	count1, 4
 773              	count1:
 774 0000 00000000 		.space	4
 775              		.type	count2, %object
 776              		.size	count2, 4
 777              	count2:
 778 0004 00000000 		.space	4
 779              		.type	count3, %object
 780              		.size	count3, 4
 781              	count3:
ARM GAS  C:\Users\dph5ah\AppData\Local\Temp\ccKCKem2.s 			page 18


 782 0008 00000000 		.space	4
 783              		.type	count4, %object
 784              		.size	count4, 4
 785              	count4:
 786 000c 00000000 		.space	4
 787              		.type	count5, %object
 788              		.size	count5, 4
 789              	count5:
 790 0010 00000000 		.space	4
 791              		.type	count6, %object
 792              		.size	count6, 4
 793              	count6:
 794 0014 00000000 		.space	4
 795              		.type	count7, %object
 796              		.size	count7, 4
 797              	count7:
 798 0018 00000000 		.space	4
 799              		.type	count8, %object
 800              		.size	count8, 4
 801              	count8:
 802 001c 00000000 		.space	4
 803              		.type	count9, %object
 804              		.size	count9, 4
 805              	count9:
 806 0020 00000000 		.space	4
 807              		.type	count10, %object
 808              		.size	count10, 4
 809              	count10:
 810 0024 00000000 		.space	4
 811              		.type	count11, %object
 812              		.size	count11, 4
 813              	count11:
 814 0028 00000000 		.space	4
 815              		.type	count12, %object
 816              		.size	count12, 4
 817              	count12:
 818 002c 00000000 		.space	4
 819              		.type	count13, %object
 820              		.size	count13, 4
 821              	count13:
 822 0030 00000000 		.space	4
 823              		.type	datain, %object
 824              		.size	datain, 4
 825              	datain:
 826 0034 00000000 		.space	4
 827              		.type	rx_flag, %object
 828              		.size	rx_flag, 4
 829              	rx_flag:
 830 0038 00000000 		.space	4
 831              		.type	total, %object
 832              		.size	total, 4
 833              	total:
 834 003c 00000000 		.space	4
 835              		.type	TransmitBuffer, %object
 836              		.size	TransmitBuffer, 255
 837              	TransmitBuffer:
 838 0040 00000000 		.space	255
ARM GAS  C:\Users\dph5ah\AppData\Local\Temp\ccKCKem2.s 			page 19


 838      00000000 
 838      00000000 
 838      00000000 
 838      00000000 
 839 013f 00       		.text
 840              	.Letext0:
 841              		.file 2 "c:\\program files (x86)\\cypress\\psoc creator\\4.0\\psoc creator\\import\\gnu\\arm\\4.9.
 842              		.file 3 "c:\\program files (x86)\\cypress\\psoc creator\\4.0\\psoc creator\\import\\gnu\\arm\\4.9.
 843              		.file 4 "Generated_Source\\PSoC5/cytypes.h"
 844              		.file 5 "Generated_Source\\PSoC5/core_cm3.h"
 845              		.file 6 "Generated_Source\\PSoC5/isr_1_sensor.h"
 846              		.file 7 "Generated_Source\\PSoC5/isr_2_sensor.h"
 847              		.file 8 "Generated_Source\\PSoC5/isr_3_sensor.h"
 848              		.file 9 "Generated_Source\\PSoC5/isr_4_sensor.h"
 849              		.file 10 "Generated_Source\\PSoC5/isr_5_sensor.h"
 850              		.file 11 "Generated_Source\\PSoC5/isr_6_sensor.h"
 851              		.file 12 "Generated_Source\\PSoC5/isr_7_sensor.h"
 852              		.file 13 "Generated_Source\\PSoC5/isr_8_sensor.h"
 853              		.file 14 "Generated_Source\\PSoC5/isr_9_sensor.h"
 854              		.file 15 "Generated_Source\\PSoC5/isr_10_sensor.h"
 855              		.file 16 "Generated_Source\\PSoC5/isr_11_sensor.h"
 856              		.file 17 "Generated_Source\\PSoC5/isr_12_sensor.h"
 857              		.file 18 "Generated_Source\\PSoC5/isr_13_sensor.h"
 858              		.file 19 "Generated_Source\\PSoC5/UART_1.h"
 859              		.file 20 "Generated_Source\\PSoC5/serial_in_buff.h"
 860              		.file 21 "c:\\program files (x86)\\cypress\\psoc creator\\4.0\\psoc creator\\import\\gnu\\arm\\4.9