ARM GAS  C:\Users\dph5ah\AppData\Local\Temp\ccqor09j.s 			page 1


   1              		.syntax unified
   2              		.cpu cortex-m3
   3              		.fpu softvfp
   4              		.eabi_attribute 20, 1
   5              		.eabi_attribute 21, 1
   6              		.eabi_attribute 23, 3
   7              		.eabi_attribute 24, 1
   8              		.eabi_attribute 25, 1
   9              		.eabi_attribute 26, 1
  10              		.eabi_attribute 30, 1
  11              		.eabi_attribute 34, 1
  12              		.eabi_attribute 18, 4
  13              		.thumb
  14              		.file	"ScanComp_1_PM.c"
  15              		.text
  16              	.Ltext0:
  17              		.cfi_sections	.debug_frame
  18              		.section	.text.ScanComp_1_Sleep,"ax",%progbits
  19              		.align	2
  20              		.global	ScanComp_1_Sleep
  21              		.thumb
  22              		.thumb_func
  23              		.type	ScanComp_1_Sleep, %function
  24              	ScanComp_1_Sleep:
  25              	.LFB0:
  26              		.file 1 "Generated_Source\\PSoC5\\ScanComp_1_PM.c"
   1:Generated_Source\PSoC5/ScanComp_1_PM.c **** /*******************************************************************************
   2:Generated_Source\PSoC5/ScanComp_1_PM.c **** * File Name: ScanComp_1_PM.c
   3:Generated_Source\PSoC5/ScanComp_1_PM.c **** * Version 1.10
   4:Generated_Source\PSoC5/ScanComp_1_PM.c **** *
   5:Generated_Source\PSoC5/ScanComp_1_PM.c **** * Description:
   6:Generated_Source\PSoC5/ScanComp_1_PM.c **** *  This file provides Sleep APIs for Scanning Comparator component.
   7:Generated_Source\PSoC5/ScanComp_1_PM.c **** *
   8:Generated_Source\PSoC5/ScanComp_1_PM.c **** * Note:
   9:Generated_Source\PSoC5/ScanComp_1_PM.c **** *  None
  10:Generated_Source\PSoC5/ScanComp_1_PM.c **** *
  11:Generated_Source\PSoC5/ScanComp_1_PM.c **** ********************************************************************************
  12:Generated_Source\PSoC5/ScanComp_1_PM.c **** * Copyright 2013, Cypress Semiconductor Corporation.  All rights reserved.
  13:Generated_Source\PSoC5/ScanComp_1_PM.c **** * You may use this file only in accordance with the license, terms, conditions,
  14:Generated_Source\PSoC5/ScanComp_1_PM.c **** * disclaimers, and limitations in the end user license agreement accompanying
  15:Generated_Source\PSoC5/ScanComp_1_PM.c **** * the software package with which this file was provided.
  16:Generated_Source\PSoC5/ScanComp_1_PM.c **** *******************************************************************************/
  17:Generated_Source\PSoC5/ScanComp_1_PM.c **** 
  18:Generated_Source\PSoC5/ScanComp_1_PM.c **** #include "ScanComp_1.h"
  19:Generated_Source\PSoC5/ScanComp_1_PM.c **** 
  20:Generated_Source\PSoC5/ScanComp_1_PM.c **** static ScanComp_1_BACKUP_STRUCT ScanComp_1_backup;
  21:Generated_Source\PSoC5/ScanComp_1_PM.c **** 
  22:Generated_Source\PSoC5/ScanComp_1_PM.c **** 
  23:Generated_Source\PSoC5/ScanComp_1_PM.c **** /*******************************************************************************
  24:Generated_Source\PSoC5/ScanComp_1_PM.c **** * Function Name: ScanComp_1_Sleep
  25:Generated_Source\PSoC5/ScanComp_1_PM.c **** ********************************************************************************
  26:Generated_Source\PSoC5/ScanComp_1_PM.c **** *
  27:Generated_Source\PSoC5/ScanComp_1_PM.c **** * Summary:
  28:Generated_Source\PSoC5/ScanComp_1_PM.c **** *  Prepares the component for low power mode operation.
  29:Generated_Source\PSoC5/ScanComp_1_PM.c **** *
  30:Generated_Source\PSoC5/ScanComp_1_PM.c **** * Parameters:
  31:Generated_Source\PSoC5/ScanComp_1_PM.c **** *  None
ARM GAS  C:\Users\dph5ah\AppData\Local\Temp\ccqor09j.s 			page 2


  32:Generated_Source\PSoC5/ScanComp_1_PM.c **** *
  33:Generated_Source\PSoC5/ScanComp_1_PM.c **** * Return:
  34:Generated_Source\PSoC5/ScanComp_1_PM.c **** *  None
  35:Generated_Source\PSoC5/ScanComp_1_PM.c **** *
  36:Generated_Source\PSoC5/ScanComp_1_PM.c **** *******************************************************************************/
  37:Generated_Source\PSoC5/ScanComp_1_PM.c **** void ScanComp_1_Sleep(void) 
  38:Generated_Source\PSoC5/ScanComp_1_PM.c **** {
  27              		.loc 1 38 0
  28              		.cfi_startproc
  29              		@ args = 0, pretend = 0, frame = 0
  30              		@ frame_needed = 0, uses_anonymous_args = 0
  31 0000 08B5     		push	{r3, lr}
  32              		.cfi_def_cfa_offset 8
  33              		.cfi_offset 3, -8
  34              		.cfi_offset 14, -4
  39:Generated_Source\PSoC5/ScanComp_1_PM.c ****     if(0u != (ScanComp_1_CONTROL_REG & ScanComp_1_CONTROL_ENABLE))
  35              		.loc 1 39 0
  36 0002 094B     		ldr	r3, .L5
  37 0004 1B78     		ldrb	r3, [r3]	@ zero_extendqisi2
  38 0006 13F0010F 		tst	r3, #1
  39 000a 05D0     		beq	.L2
  40:Generated_Source\PSoC5/ScanComp_1_PM.c ****     {
  41:Generated_Source\PSoC5/ScanComp_1_PM.c ****         ScanComp_1_backup.enableState = 1u;
  40              		.loc 1 41 0
  41 000c 0122     		movs	r2, #1
  42 000e 074B     		ldr	r3, .L5+4
  43 0010 1A70     		strb	r2, [r3]
  42:Generated_Source\PSoC5/ScanComp_1_PM.c ****         ScanComp_1_Stop();
  44              		.loc 1 42 0
  45 0012 FFF7FEFF 		bl	ScanComp_1_Stop
  46              	.LVL0:
  47 0016 02E0     		b	.L3
  48              	.L2:
  43:Generated_Source\PSoC5/ScanComp_1_PM.c ****     }
  44:Generated_Source\PSoC5/ScanComp_1_PM.c ****     else /* The component is disabled */
  45:Generated_Source\PSoC5/ScanComp_1_PM.c ****     {
  46:Generated_Source\PSoC5/ScanComp_1_PM.c ****         ScanComp_1_backup.enableState = 0u;
  49              		.loc 1 46 0
  50 0018 0022     		movs	r2, #0
  51 001a 044B     		ldr	r3, .L5+4
  52 001c 1A70     		strb	r2, [r3]
  53              	.L3:
  47:Generated_Source\PSoC5/ScanComp_1_PM.c ****     }
  48:Generated_Source\PSoC5/ScanComp_1_PM.c **** 
  49:Generated_Source\PSoC5/ScanComp_1_PM.c ****     ScanComp_1_Comp_Sleep();
  54              		.loc 1 49 0
  55 001e FFF7FEFF 		bl	ScanComp_1_Comp_Sleep
  56              	.LVL1:
  50:Generated_Source\PSoC5/ScanComp_1_PM.c **** 
  51:Generated_Source\PSoC5/ScanComp_1_PM.c ****     #if (ScanComp_1_INTERNAL_REF_IS_USED)
  52:Generated_Source\PSoC5/ScanComp_1_PM.c ****         ScanComp_1_VDAC_Sleep();
  57              		.loc 1 52 0
  58 0022 FFF7FEFF 		bl	ScanComp_1_VDAC_Sleep
  59              	.LVL2:
  60 0026 08BD     		pop	{r3, pc}
  61              	.L6:
  62              		.align	2
ARM GAS  C:\Users\dph5ah\AppData\Local\Temp\ccqor09j.s 			page 3


  63              	.L5:
  64 0028 7C640040 		.word	1073767548
  65 002c 00000000 		.word	.LANCHOR0
  66              		.cfi_endproc
  67              	.LFE0:
  68              		.size	ScanComp_1_Sleep, .-ScanComp_1_Sleep
  69              		.section	.text.ScanComp_1_Wakeup,"ax",%progbits
  70              		.align	2
  71              		.global	ScanComp_1_Wakeup
  72              		.thumb
  73              		.thumb_func
  74              		.type	ScanComp_1_Wakeup, %function
  75              	ScanComp_1_Wakeup:
  76              	.LFB1:
  53:Generated_Source\PSoC5/ScanComp_1_PM.c ****     #endif /* ScanComp_1_INTERNAL_REF_IS_USED */
  54:Generated_Source\PSoC5/ScanComp_1_PM.c **** }
  55:Generated_Source\PSoC5/ScanComp_1_PM.c **** 
  56:Generated_Source\PSoC5/ScanComp_1_PM.c **** 
  57:Generated_Source\PSoC5/ScanComp_1_PM.c **** /*******************************************************************************
  58:Generated_Source\PSoC5/ScanComp_1_PM.c **** * Function Name: ScanComp_1_Wakeup
  59:Generated_Source\PSoC5/ScanComp_1_PM.c **** ********************************************************************************
  60:Generated_Source\PSoC5/ScanComp_1_PM.c **** *
  61:Generated_Source\PSoC5/ScanComp_1_PM.c **** * Summary:
  62:Generated_Source\PSoC5/ScanComp_1_PM.c **** *  Restores the component to the state when ScanComp_1_Sleep() was called.
  63:Generated_Source\PSoC5/ScanComp_1_PM.c **** *
  64:Generated_Source\PSoC5/ScanComp_1_PM.c **** * Parameters:
  65:Generated_Source\PSoC5/ScanComp_1_PM.c **** *  None
  66:Generated_Source\PSoC5/ScanComp_1_PM.c **** *
  67:Generated_Source\PSoC5/ScanComp_1_PM.c **** * Return:
  68:Generated_Source\PSoC5/ScanComp_1_PM.c **** *  None
  69:Generated_Source\PSoC5/ScanComp_1_PM.c **** *
  70:Generated_Source\PSoC5/ScanComp_1_PM.c **** *******************************************************************************/
  71:Generated_Source\PSoC5/ScanComp_1_PM.c **** void ScanComp_1_Wakeup(void) 
  72:Generated_Source\PSoC5/ScanComp_1_PM.c **** {
  77              		.loc 1 72 0
  78              		.cfi_startproc
  79              		@ args = 0, pretend = 0, frame = 0
  80              		@ frame_needed = 0, uses_anonymous_args = 0
  81 0000 08B5     		push	{r3, lr}
  82              		.cfi_def_cfa_offset 8
  83              		.cfi_offset 3, -8
  84              		.cfi_offset 14, -4
  73:Generated_Source\PSoC5/ScanComp_1_PM.c ****     ScanComp_1_Comp_Wakeup();
  85              		.loc 1 73 0
  86 0002 FFF7FEFF 		bl	ScanComp_1_Comp_Wakeup
  87              	.LVL3:
  74:Generated_Source\PSoC5/ScanComp_1_PM.c ****     
  75:Generated_Source\PSoC5/ScanComp_1_PM.c ****     #if (ScanComp_1_INTERNAL_REF_IS_USED)
  76:Generated_Source\PSoC5/ScanComp_1_PM.c ****         ScanComp_1_VDAC_Start();
  88              		.loc 1 76 0
  89 0006 FFF7FEFF 		bl	ScanComp_1_VDAC_Start
  90              	.LVL4:
  77:Generated_Source\PSoC5/ScanComp_1_PM.c **** 
  78:Generated_Source\PSoC5/ScanComp_1_PM.c ****         #if (ScanComp_1_VDAC_PER_CHANNEL_MODE_USED)
  79:Generated_Source\PSoC5/ScanComp_1_PM.c ****             ScanComp_1_Init();
  80:Generated_Source\PSoC5/ScanComp_1_PM.c ****         #endif /* ScanComp_1_VDAC_PER_CHANNEL_MODE_USED */
  81:Generated_Source\PSoC5/ScanComp_1_PM.c ****     #endif /* ScanComp_1_INTERNAL_REF_IS_USED */
ARM GAS  C:\Users\dph5ah\AppData\Local\Temp\ccqor09j.s 			page 4


  82:Generated_Source\PSoC5/ScanComp_1_PM.c **** 
  83:Generated_Source\PSoC5/ScanComp_1_PM.c ****     if(0u != ScanComp_1_backup.enableState)
  91              		.loc 1 83 0
  92 000a 034B     		ldr	r3, .L10
  93 000c 1B78     		ldrb	r3, [r3]	@ zero_extendqisi2
  94 000e 0BB1     		cbz	r3, .L7
  84:Generated_Source\PSoC5/ScanComp_1_PM.c ****     {
  85:Generated_Source\PSoC5/ScanComp_1_PM.c ****         ScanComp_1_Enable();
  95              		.loc 1 85 0
  96 0010 FFF7FEFF 		bl	ScanComp_1_Enable
  97              	.LVL5:
  98              	.L7:
  99 0014 08BD     		pop	{r3, pc}
 100              	.L11:
 101 0016 00BF     		.align	2
 102              	.L10:
 103 0018 00000000 		.word	.LANCHOR0
 104              		.cfi_endproc
 105              	.LFE1:
 106              		.size	ScanComp_1_Wakeup, .-ScanComp_1_Wakeup
 107              		.bss
 108              		.align	2
 109              		.set	.LANCHOR0,. + 0
 110              		.type	ScanComp_1_backup, %object
 111              		.size	ScanComp_1_backup, 1
 112              	ScanComp_1_backup:
 113 0000 00       		.space	1
 114 0001 000000   		.text
 115              	.Letext0:
 116              		.file 2 "Generated_Source\\PSoC5\\cytypes.h"
 117              		.file 3 "Generated_Source\\PSoC5\\ScanComp_1.h"
 118              		.file 4 "Generated_Source\\PSoC5\\ScanComp_1_Comp.h"
 119              		.file 5 "Generated_Source\\PSoC5\\ScanComp_1_VDAC.h"