ARM GAS  C:\Users\dph5ah\AppData\Local\Temp\ccMZH2Qd.s 			page 1


   1              		.syntax unified
   2              		.cpu cortex-m3
   3              		.fpu softvfp
   4              		.eabi_attribute 20, 1
   5              		.eabi_attribute 21, 1
   6              		.eabi_attribute 23, 3
   7              		.eabi_attribute 24, 1
   8              		.eabi_attribute 25, 1
   9              		.eabi_attribute 26, 1
  10              		.eabi_attribute 30, 1
  11              		.eabi_attribute 34, 1
  12              		.eabi_attribute 18, 4
  13              		.thumb
  14              		.file	"ScanComp_1.c"
  15              		.text
  16              	.Ltext0:
  17              		.cfi_sections	.debug_frame
  18              		.section	.text.ScanComp_1_Stop,"ax",%progbits
  19              		.align	2
  20              		.global	ScanComp_1_Stop
  21              		.thumb
  22              		.thumb_func
  23              		.type	ScanComp_1_Stop, %function
  24              	ScanComp_1_Stop:
  25              	.LFB2:
  26              		.file 1 "Generated_Source\\PSoC5\\ScanComp_1.c"
   1:Generated_Source\PSoC5/ScanComp_1.c **** /*******************************************************************************
   2:Generated_Source\PSoC5/ScanComp_1.c **** * File Name: ScanComp_1.c
   3:Generated_Source\PSoC5/ScanComp_1.c **** * Version 1.10
   4:Generated_Source\PSoC5/ScanComp_1.c **** *
   5:Generated_Source\PSoC5/ScanComp_1.c **** * Description:
   6:Generated_Source\PSoC5/ScanComp_1.c **** *  This file provides the source code to the API for the Scanning Comparator
   7:Generated_Source\PSoC5/ScanComp_1.c **** *  component
   8:Generated_Source\PSoC5/ScanComp_1.c **** *
   9:Generated_Source\PSoC5/ScanComp_1.c **** * Note:
  10:Generated_Source\PSoC5/ScanComp_1.c **** *  None
  11:Generated_Source\PSoC5/ScanComp_1.c **** *
  12:Generated_Source\PSoC5/ScanComp_1.c **** ********************************************************************************
  13:Generated_Source\PSoC5/ScanComp_1.c **** * Copyright 2013, Cypress Semiconductor Corporation.  All rights reserved.
  14:Generated_Source\PSoC5/ScanComp_1.c **** * You may use this file only in accordance with the license, terms, conditions,
  15:Generated_Source\PSoC5/ScanComp_1.c **** * disclaimers, and limitations in the end user license agreement accompanying
  16:Generated_Source\PSoC5/ScanComp_1.c **** * the software package with which this file was provided.
  17:Generated_Source\PSoC5/ScanComp_1.c **** *******************************************************************************/
  18:Generated_Source\PSoC5/ScanComp_1.c **** 
  19:Generated_Source\PSoC5/ScanComp_1.c **** #include "ScanComp_1.h"
  20:Generated_Source\PSoC5/ScanComp_1.c **** 
  21:Generated_Source\PSoC5/ScanComp_1.c **** #if (ScanComp_1_INTERNAL_REF_IS_USED)
  22:Generated_Source\PSoC5/ScanComp_1.c **** 
  23:Generated_Source\PSoC5/ScanComp_1.c ****     static uint8  ScanComp_1_compDACRange;
  24:Generated_Source\PSoC5/ScanComp_1.c ****     
  25:Generated_Source\PSoC5/ScanComp_1.c ****     #if (ScanComp_1_VDAC_PER_CHANNEL_MODE_USED)
  26:Generated_Source\PSoC5/ScanComp_1.c ****         
  27:Generated_Source\PSoC5/ScanComp_1.c ****         /* Variable declarations for DMA */
  28:Generated_Source\PSoC5/ScanComp_1.c ****         static uint8 ScanComp_1_DMA_VDACUpdate_Chan;
  29:Generated_Source\PSoC5/ScanComp_1.c ****         static uint8 ScanComp_1_DMA_VDACUpdate_TD = CY_DMA_INVALID_TD;
  30:Generated_Source\PSoC5/ScanComp_1.c ****         
  31:Generated_Source\PSoC5/ScanComp_1.c ****         static void ScanComp_1_InitDma(void)  ;
ARM GAS  C:\Users\dph5ah\AppData\Local\Temp\ccMZH2Qd.s 			page 2


  32:Generated_Source\PSoC5/ScanComp_1.c **** 
  33:Generated_Source\PSoC5/ScanComp_1.c ****         /* Array from customizer */
  34:Generated_Source\PSoC5/ScanComp_1.c ****         static uint8 ScanComp_1_DacVoltages[ScanComp_1_NUM_OF_CHANNELS] = {
  35:Generated_Source\PSoC5/ScanComp_1.c ****     0xFAu, 
  36:Generated_Source\PSoC5/ScanComp_1.c **** };
  37:Generated_Source\PSoC5/ScanComp_1.c **** 
  38:Generated_Source\PSoC5/ScanComp_1.c ****     #else
  39:Generated_Source\PSoC5/ScanComp_1.c ****         static uint8  ScanComp_1_compDACVoltage;
  40:Generated_Source\PSoC5/ScanComp_1.c ****     #endif /* ScanComp_1_VDAC_PER_CHANNEL_MODE_USED */
  41:Generated_Source\PSoC5/ScanComp_1.c **** #endif /* ScanComp_1_INTERNAL_REF_IS_USED */
  42:Generated_Source\PSoC5/ScanComp_1.c **** 
  43:Generated_Source\PSoC5/ScanComp_1.c **** #if (ScanComp_1_NUM_OF_CHANNELS >= 8u)
  44:Generated_Source\PSoC5/ScanComp_1.c ****     static uint8 storeStatusReg;
  45:Generated_Source\PSoC5/ScanComp_1.c **** #endif /* ScanComp_1_NUM_OF_CHANNELS >= 8u */
  46:Generated_Source\PSoC5/ScanComp_1.c **** 
  47:Generated_Source\PSoC5/ScanComp_1.c **** uint8  ScanComp_1_initVar = 0u;
  48:Generated_Source\PSoC5/ScanComp_1.c **** 
  49:Generated_Source\PSoC5/ScanComp_1.c **** static reg8 * const CYCODE interruptStatusMaskRegs[ScanComp_1_NUM_OF_INT_REGISTERS] =
  50:Generated_Source\PSoC5/ScanComp_1.c **** {
  51:Generated_Source\PSoC5/ScanComp_1.c ****     ScanComp_1_STATUS_INT0_MASK_PTR,
  52:Generated_Source\PSoC5/ScanComp_1.c **** 
  53:Generated_Source\PSoC5/ScanComp_1.c ****     #if(ScanComp_1_NUM_OF_CHANNELS > 8u)
  54:Generated_Source\PSoC5/ScanComp_1.c ****         ScanComp_1_STATUS_INT1_MASK_PTR,
  55:Generated_Source\PSoC5/ScanComp_1.c ****     #endif /* ScanComp_1_NUM_OF_CHANNELS > 8u */
  56:Generated_Source\PSoC5/ScanComp_1.c **** 
  57:Generated_Source\PSoC5/ScanComp_1.c ****     #if(ScanComp_1_NUM_OF_CHANNELS > 16u)
  58:Generated_Source\PSoC5/ScanComp_1.c ****         ScanComp_1_STATUS_INT2_MASK_PTR,
  59:Generated_Source\PSoC5/ScanComp_1.c ****     #endif /* ScanComp_1_NUM_OF_CHANNELS > 16u */
  60:Generated_Source\PSoC5/ScanComp_1.c **** 
  61:Generated_Source\PSoC5/ScanComp_1.c ****     #if(ScanComp_1_NUM_OF_CHANNELS > 24u)
  62:Generated_Source\PSoC5/ScanComp_1.c ****         ScanComp_1_STATUS_INT3_MASK_PTR,
  63:Generated_Source\PSoC5/ScanComp_1.c ****     #endif /* ScanComp_1_NUM_OF_CHANNELS > 24u */
  64:Generated_Source\PSoC5/ScanComp_1.c **** 
  65:Generated_Source\PSoC5/ScanComp_1.c ****     #if(ScanComp_1_NUM_OF_CHANNELS > 32u)
  66:Generated_Source\PSoC5/ScanComp_1.c ****         ScanComp_1_STATUS_INT4_MASK_PTR,
  67:Generated_Source\PSoC5/ScanComp_1.c ****     #endif /* ScanComp_1_NUM_OF_CHANNELS > 32u */
  68:Generated_Source\PSoC5/ScanComp_1.c **** 
  69:Generated_Source\PSoC5/ScanComp_1.c ****     #if(ScanComp_1_NUM_OF_CHANNELS > 40u)
  70:Generated_Source\PSoC5/ScanComp_1.c ****         ScanComp_1_STATUS_INT5_MASK_PTR,
  71:Generated_Source\PSoC5/ScanComp_1.c ****     #endif /* ScanComp_1_NUM_OF_CHANNELS > 40u */
  72:Generated_Source\PSoC5/ScanComp_1.c **** 
  73:Generated_Source\PSoC5/ScanComp_1.c ****     #if(ScanComp_1_NUM_OF_CHANNELS > 48u)
  74:Generated_Source\PSoC5/ScanComp_1.c ****         ScanComp_1_STATUS_INT6_MASK_PTR,
  75:Generated_Source\PSoC5/ScanComp_1.c ****     #endif /* ScanComp_1_NUM_OF_CHANNELS > 48u */
  76:Generated_Source\PSoC5/ScanComp_1.c **** 
  77:Generated_Source\PSoC5/ScanComp_1.c ****     #if(ScanComp_1_NUM_OF_CHANNELS > 56u)
  78:Generated_Source\PSoC5/ScanComp_1.c ****         ScanComp_1_STATUS_INT7_MASK_PTR,
  79:Generated_Source\PSoC5/ScanComp_1.c ****     #endif /* ScanComp_1_NUM_OF_CHANNELS > 56u */
  80:Generated_Source\PSoC5/ScanComp_1.c **** };
  81:Generated_Source\PSoC5/ScanComp_1.c **** 
  82:Generated_Source\PSoC5/ScanComp_1.c **** 
  83:Generated_Source\PSoC5/ScanComp_1.c **** /*******************************************************************************
  84:Generated_Source\PSoC5/ScanComp_1.c **** * Function Name: ScanComp_1_Start
  85:Generated_Source\PSoC5/ScanComp_1.c **** ********************************************************************************
  86:Generated_Source\PSoC5/ScanComp_1.c **** *
  87:Generated_Source\PSoC5/ScanComp_1.c **** * Summary:
  88:Generated_Source\PSoC5/ScanComp_1.c **** *  Performs all of the required initialization for the ScanComp component
ARM GAS  C:\Users\dph5ah\AppData\Local\Temp\ccMZH2Qd.s 			page 3


  89:Generated_Source\PSoC5/ScanComp_1.c **** *  and enables power to the block.
  90:Generated_Source\PSoC5/ScanComp_1.c **** *
  91:Generated_Source\PSoC5/ScanComp_1.c **** * Parameters:
  92:Generated_Source\PSoC5/ScanComp_1.c **** *  None
  93:Generated_Source\PSoC5/ScanComp_1.c **** *
  94:Generated_Source\PSoC5/ScanComp_1.c **** * Return:
  95:Generated_Source\PSoC5/ScanComp_1.c **** *  None
  96:Generated_Source\PSoC5/ScanComp_1.c **** *
  97:Generated_Source\PSoC5/ScanComp_1.c **** *******************************************************************************/
  98:Generated_Source\PSoC5/ScanComp_1.c **** void ScanComp_1_Start(void) 
  99:Generated_Source\PSoC5/ScanComp_1.c **** {
 100:Generated_Source\PSoC5/ScanComp_1.c ****     if(0u == ScanComp_1_initVar)
 101:Generated_Source\PSoC5/ScanComp_1.c ****     {
 102:Generated_Source\PSoC5/ScanComp_1.c ****         ScanComp_1_Init();
 103:Generated_Source\PSoC5/ScanComp_1.c ****         ScanComp_1_initVar = 1u;
 104:Generated_Source\PSoC5/ScanComp_1.c ****     }
 105:Generated_Source\PSoC5/ScanComp_1.c ****     ScanComp_1_Enable();
 106:Generated_Source\PSoC5/ScanComp_1.c **** }
 107:Generated_Source\PSoC5/ScanComp_1.c **** 
 108:Generated_Source\PSoC5/ScanComp_1.c **** 
 109:Generated_Source\PSoC5/ScanComp_1.c **** /*******************************************************************************
 110:Generated_Source\PSoC5/ScanComp_1.c **** * Function Name: ScanComp_1_Init
 111:Generated_Source\PSoC5/ScanComp_1.c **** ********************************************************************************
 112:Generated_Source\PSoC5/ScanComp_1.c **** *
 113:Generated_Source\PSoC5/ScanComp_1.c **** * Summary:
 114:Generated_Source\PSoC5/ScanComp_1.c **** *  Initializes or restores the ScanComp component according to
 115:Generated_Source\PSoC5/ScanComp_1.c **** *  the customizer settings.
 116:Generated_Source\PSoC5/ScanComp_1.c **** *
 117:Generated_Source\PSoC5/ScanComp_1.c **** * Parameters:
 118:Generated_Source\PSoC5/ScanComp_1.c **** *  None
 119:Generated_Source\PSoC5/ScanComp_1.c **** *
 120:Generated_Source\PSoC5/ScanComp_1.c **** * Return:
 121:Generated_Source\PSoC5/ScanComp_1.c **** *  None
 122:Generated_Source\PSoC5/ScanComp_1.c **** *
 123:Generated_Source\PSoC5/ScanComp_1.c **** *******************************************************************************/
 124:Generated_Source\PSoC5/ScanComp_1.c **** void ScanComp_1_Init(void) 
 125:Generated_Source\PSoC5/ScanComp_1.c **** {
 126:Generated_Source\PSoC5/ScanComp_1.c ****     #if (ScanComp_1_NUM_OF_CHANNELS >= 8u)
 127:Generated_Source\PSoC5/ScanComp_1.c ****         storeStatusReg = 0u;
 128:Generated_Source\PSoC5/ScanComp_1.c ****     #endif /* ScanComp_1_NUM_OF_CHANNELS >= 8u */
 129:Generated_Source\PSoC5/ScanComp_1.c **** 
 130:Generated_Source\PSoC5/ScanComp_1.c ****     ScanComp_1_Comp_Init();    
 131:Generated_Source\PSoC5/ScanComp_1.c ****     
 132:Generated_Source\PSoC5/ScanComp_1.c ****     #if (ScanComp_1_INTERNAL_REF_IS_USED)
 133:Generated_Source\PSoC5/ScanComp_1.c ****         ScanComp_1_VDAC_Init();
 134:Generated_Source\PSoC5/ScanComp_1.c ****         ScanComp_1_compDACRange = ScanComp_1_DEFAULT_RANGE;
 135:Generated_Source\PSoC5/ScanComp_1.c **** 
 136:Generated_Source\PSoC5/ScanComp_1.c ****         #if (ScanComp_1_VDAC_PER_CHANNEL_MODE_USED)
 137:Generated_Source\PSoC5/ScanComp_1.c ****             ScanComp_1_VDAC_SetValue(0x0u);
 138:Generated_Source\PSoC5/ScanComp_1.c ****             
 139:Generated_Source\PSoC5/ScanComp_1.c ****             if(CY_DMA_INVALID_TD == ScanComp_1_DMA_VDACUpdate_TD)
 140:Generated_Source\PSoC5/ScanComp_1.c ****             {
 141:Generated_Source\PSoC5/ScanComp_1.c ****                 ScanComp_1_InitDma();
 142:Generated_Source\PSoC5/ScanComp_1.c ****             }            
 143:Generated_Source\PSoC5/ScanComp_1.c ****         #else
 144:Generated_Source\PSoC5/ScanComp_1.c ****             ScanComp_1_SetDACVoltage(ScanComp_1_DEFAULT_VOLTAGE);
 145:Generated_Source\PSoC5/ScanComp_1.c ****         #endif /* ScanComp_1_VDAC_PER_CHANNEL_MODE_USED */
ARM GAS  C:\Users\dph5ah\AppData\Local\Temp\ccMZH2Qd.s 			page 4


 146:Generated_Source\PSoC5/ScanComp_1.c ****     #endif /* ScanComp_1_INTERNAL_REF_IS_USED */
 147:Generated_Source\PSoC5/ScanComp_1.c **** }
 148:Generated_Source\PSoC5/ScanComp_1.c **** 
 149:Generated_Source\PSoC5/ScanComp_1.c **** 
 150:Generated_Source\PSoC5/ScanComp_1.c **** /*******************************************************************************
 151:Generated_Source\PSoC5/ScanComp_1.c **** * Function Name: ScanComp_1_Stop
 152:Generated_Source\PSoC5/ScanComp_1.c **** ********************************************************************************
 153:Generated_Source\PSoC5/ScanComp_1.c **** *
 154:Generated_Source\PSoC5/ScanComp_1.c **** * Summary:
 155:Generated_Source\PSoC5/ScanComp_1.c **** *  Turns off the Scanning Comparator by turning off the comparator itself and 
 156:Generated_Source\PSoC5/ScanComp_1.c **** *  halting the muxing of inputs, and turning off the DAC if it is used.
 157:Generated_Source\PSoC5/ScanComp_1.c **** *
 158:Generated_Source\PSoC5/ScanComp_1.c **** * Parameters:
 159:Generated_Source\PSoC5/ScanComp_1.c **** *  None
 160:Generated_Source\PSoC5/ScanComp_1.c **** *
 161:Generated_Source\PSoC5/ScanComp_1.c **** * Return:
 162:Generated_Source\PSoC5/ScanComp_1.c **** *  None
 163:Generated_Source\PSoC5/ScanComp_1.c **** *
 164:Generated_Source\PSoC5/ScanComp_1.c **** *******************************************************************************/
 165:Generated_Source\PSoC5/ScanComp_1.c **** void ScanComp_1_Stop(void) 
 166:Generated_Source\PSoC5/ScanComp_1.c **** {
  27              		.loc 1 166 0
  28              		.cfi_startproc
  29              		@ args = 0, pretend = 0, frame = 0
  30              		@ frame_needed = 0, uses_anonymous_args = 0
  31 0000 08B5     		push	{r3, lr}
  32              		.cfi_def_cfa_offset 8
  33              		.cfi_offset 3, -8
  34              		.cfi_offset 14, -4
 167:Generated_Source\PSoC5/ScanComp_1.c ****     ScanComp_1_CONTROL_REG = ScanComp_1_CONTROL_DISABLE;
  35              		.loc 1 167 0
  36 0002 0022     		movs	r2, #0
  37 0004 034B     		ldr	r3, .L3
  38 0006 1A70     		strb	r2, [r3]
 168:Generated_Source\PSoC5/ScanComp_1.c ****     
 169:Generated_Source\PSoC5/ScanComp_1.c ****     ScanComp_1_Comp_Stop();    
  39              		.loc 1 169 0
  40 0008 FFF7FEFF 		bl	ScanComp_1_Comp_Stop
  41              	.LVL0:
 170:Generated_Source\PSoC5/ScanComp_1.c ****     
 171:Generated_Source\PSoC5/ScanComp_1.c ****     #if (ScanComp_1_INTERNAL_REF_IS_USED)
 172:Generated_Source\PSoC5/ScanComp_1.c ****         ScanComp_1_VDAC_Stop();
  42              		.loc 1 172 0
  43 000c FFF7FEFF 		bl	ScanComp_1_VDAC_Stop
  44              	.LVL1:
  45 0010 08BD     		pop	{r3, pc}
  46              	.L4:
  47 0012 00BF     		.align	2
  48              	.L3:
  49 0014 7C640040 		.word	1073767548
  50              		.cfi_endproc
  51              	.LFE2:
  52              		.size	ScanComp_1_Stop, .-ScanComp_1_Stop
  53              		.section	.text.ScanComp_1_Enable,"ax",%progbits
  54              		.align	2
  55              		.global	ScanComp_1_Enable
  56              		.thumb
ARM GAS  C:\Users\dph5ah\AppData\Local\Temp\ccMZH2Qd.s 			page 5


  57              		.thumb_func
  58              		.type	ScanComp_1_Enable, %function
  59              	ScanComp_1_Enable:
  60              	.LFB3:
 173:Generated_Source\PSoC5/ScanComp_1.c **** 
 174:Generated_Source\PSoC5/ScanComp_1.c ****         #if (ScanComp_1_VDAC_PER_CHANNEL_MODE_USED)
 175:Generated_Source\PSoC5/ScanComp_1.c ****             (void) CyDmaChDisable(ScanComp_1_DMA_VDACUpdate_Chan);
 176:Generated_Source\PSoC5/ScanComp_1.c ****         #endif /* ScanComp_1_VDAC_PER_CHANNEL_MODE_USED */
 177:Generated_Source\PSoC5/ScanComp_1.c ****     #endif /* ScanComp_1_INTERNAL_REF_IS_USED */
 178:Generated_Source\PSoC5/ScanComp_1.c **** }
 179:Generated_Source\PSoC5/ScanComp_1.c **** 
 180:Generated_Source\PSoC5/ScanComp_1.c **** 
 181:Generated_Source\PSoC5/ScanComp_1.c **** /*******************************************************************************
 182:Generated_Source\PSoC5/ScanComp_1.c **** * Function Name: ScanComp_1_Enable
 183:Generated_Source\PSoC5/ScanComp_1.c **** ********************************************************************************
 184:Generated_Source\PSoC5/ScanComp_1.c **** *
 185:Generated_Source\PSoC5/ScanComp_1.c **** * Summary:
 186:Generated_Source\PSoC5/ScanComp_1.c **** *  Activates the hardware and begins component operation.
 187:Generated_Source\PSoC5/ScanComp_1.c **** *
 188:Generated_Source\PSoC5/ScanComp_1.c **** * Parameters:
 189:Generated_Source\PSoC5/ScanComp_1.c **** *  None
 190:Generated_Source\PSoC5/ScanComp_1.c **** *
 191:Generated_Source\PSoC5/ScanComp_1.c **** * Return:
 192:Generated_Source\PSoC5/ScanComp_1.c **** *  None
 193:Generated_Source\PSoC5/ScanComp_1.c **** *
 194:Generated_Source\PSoC5/ScanComp_1.c **** *******************************************************************************/
 195:Generated_Source\PSoC5/ScanComp_1.c **** void ScanComp_1_Enable(void) 
 196:Generated_Source\PSoC5/ScanComp_1.c **** {
  61              		.loc 1 196 0
  62              		.cfi_startproc
  63              		@ args = 0, pretend = 0, frame = 0
  64              		@ frame_needed = 0, uses_anonymous_args = 0
  65 0000 08B5     		push	{r3, lr}
  66              		.cfi_def_cfa_offset 8
  67              		.cfi_offset 3, -8
  68              		.cfi_offset 14, -4
 197:Generated_Source\PSoC5/ScanComp_1.c ****     uint8 interruptState;
 198:Generated_Source\PSoC5/ScanComp_1.c **** 
 199:Generated_Source\PSoC5/ScanComp_1.c ****     ScanComp_1_Comp_Enable();
  69              		.loc 1 199 0
  70 0002 FFF7FEFF 		bl	ScanComp_1_Comp_Enable
  71              	.LVL2:
 200:Generated_Source\PSoC5/ScanComp_1.c ****     
 201:Generated_Source\PSoC5/ScanComp_1.c ****     ScanComp_1_COUNTER_COUNT_REG  = ScanComp_1_DEFAULT_CHANNELS_VAL;
  72              		.loc 1 201 0
  73 0006 0022     		movs	r2, #0
  74 0008 0A4B     		ldr	r3, .L7
  75 000a 1A70     		strb	r2, [r3]
 202:Generated_Source\PSoC5/ScanComp_1.c **** 
 203:Generated_Source\PSoC5/ScanComp_1.c ****     #if (ScanComp_1_INTERNAL_REF_IS_USED)
 204:Generated_Source\PSoC5/ScanComp_1.c ****         ScanComp_1_VDAC_Enable();
  76              		.loc 1 204 0
  77 000c FFF7FEFF 		bl	ScanComp_1_VDAC_Enable
  78              	.LVL3:
 205:Generated_Source\PSoC5/ScanComp_1.c ****         #if (ScanComp_1_VDAC_PER_CHANNEL_MODE_USED)        
 206:Generated_Source\PSoC5/ScanComp_1.c ****             (void)CyDmaClearPendingDrq(ScanComp_1_DMA_VDACUpdate_Chan);
 207:Generated_Source\PSoC5/ScanComp_1.c ****             (void)CyDmaChEnable(ScanComp_1_DMA_VDACUpdate_Chan, 1u);
ARM GAS  C:\Users\dph5ah\AppData\Local\Temp\ccMZH2Qd.s 			page 6


 208:Generated_Source\PSoC5/ScanComp_1.c ****         #endif /* (ScanComp_1_VDAC_PER_CHANNEL_MODE_USED) */    
 209:Generated_Source\PSoC5/ScanComp_1.c ****     #endif /* ScanComp_1_INTERNAL_REF_IS_USED */    
 210:Generated_Source\PSoC5/ScanComp_1.c **** 
 211:Generated_Source\PSoC5/ScanComp_1.c ****     /* Enable Status Int */
 212:Generated_Source\PSoC5/ScanComp_1.c ****     interruptState = CyEnterCriticalSection();
  79              		.loc 1 212 0
  80 0010 FFF7FEFF 		bl	CyEnterCriticalSection
  81              	.LVL4:
 213:Generated_Source\PSoC5/ScanComp_1.c **** 
 214:Generated_Source\PSoC5/ScanComp_1.c ****     #if (ScanComp_1_NUM_OF_CHANNELS < 8u)
 215:Generated_Source\PSoC5/ScanComp_1.c ****         ScanComp_1_STATUS_INT0_AUX_CONTROL |= ScanComp_1_STATUS_INTR_ENBL;
  82              		.loc 1 215 0
  83 0014 084A     		ldr	r2, .L7+4
  84 0016 1378     		ldrb	r3, [r2]	@ zero_extendqisi2
  85 0018 43F01003 		orr	r3, r3, #16
  86 001c 1370     		strb	r3, [r2]
 216:Generated_Source\PSoC5/ScanComp_1.c ****     #endif /* ScanComp_1_NUM_OF_CHANNELS < 8u */
 217:Generated_Source\PSoC5/ScanComp_1.c **** 
 218:Generated_Source\PSoC5/ScanComp_1.c ****     #if (ScanComp_1_NUM_OF_CHANNELS >= 8u)
 219:Generated_Source\PSoC5/ScanComp_1.c ****         ScanComp_1_STATUS_INT8_AUX_CONTROL |= ScanComp_1_STATUS_INTR_ENBL;
 220:Generated_Source\PSoC5/ScanComp_1.c ****     #endif /* ScanComp_1_NUM_OF_CHANNELS >= 8u */
 221:Generated_Source\PSoC5/ScanComp_1.c **** 
 222:Generated_Source\PSoC5/ScanComp_1.c ****     #if (ScanComp_1_NUM_OF_CHANNELS >= 9u)
 223:Generated_Source\PSoC5/ScanComp_1.c ****         ScanComp_1_STATUS_INT1_AUX_CONTROL |= ScanComp_1_STATUS_INTR_ENBL;
 224:Generated_Source\PSoC5/ScanComp_1.c ****     #endif /* ScanComp_1_NUM_OF_CHANNELS >= 9u */
 225:Generated_Source\PSoC5/ScanComp_1.c **** 
 226:Generated_Source\PSoC5/ScanComp_1.c ****     #if (ScanComp_1_NUM_OF_CHANNELS > 16u)
 227:Generated_Source\PSoC5/ScanComp_1.c ****         ScanComp_1_STATUS_INT2_AUX_CONTROL |= ScanComp_1_STATUS_INTR_ENBL;
 228:Generated_Source\PSoC5/ScanComp_1.c ****     #endif /* ScanComp_1_NUM_OF_CHANNELS > 16u */
 229:Generated_Source\PSoC5/ScanComp_1.c **** 
 230:Generated_Source\PSoC5/ScanComp_1.c ****     #if (ScanComp_1_NUM_OF_CHANNELS > 24u)
 231:Generated_Source\PSoC5/ScanComp_1.c ****         ScanComp_1_STATUS_INT3_AUX_CONTROL |= ScanComp_1_STATUS_INTR_ENBL;
 232:Generated_Source\PSoC5/ScanComp_1.c ****     #endif /* ScanComp_1_NUM_OF_CHANNELS > 24u */
 233:Generated_Source\PSoC5/ScanComp_1.c **** 
 234:Generated_Source\PSoC5/ScanComp_1.c ****     #if (ScanComp_1_NUM_OF_CHANNELS > 32u)
 235:Generated_Source\PSoC5/ScanComp_1.c ****         ScanComp_1_STATUS_INT4_AUX_CONTROL |= ScanComp_1_STATUS_INTR_ENBL;
 236:Generated_Source\PSoC5/ScanComp_1.c ****     #endif /* ScanComp_1_NUM_OF_CHANNELS > 32u */
 237:Generated_Source\PSoC5/ScanComp_1.c **** 
 238:Generated_Source\PSoC5/ScanComp_1.c ****     #if (ScanComp_1_NUM_OF_CHANNELS > 40u)
 239:Generated_Source\PSoC5/ScanComp_1.c ****         ScanComp_1_STATUS_INT5_AUX_CONTROL |= ScanComp_1_STATUS_INTR_ENBL;
 240:Generated_Source\PSoC5/ScanComp_1.c ****     #endif /* ScanComp_1_NUM_OF_CHANNELS > 40u */
 241:Generated_Source\PSoC5/ScanComp_1.c **** 
 242:Generated_Source\PSoC5/ScanComp_1.c ****     #if (ScanComp_1_NUM_OF_CHANNELS > 48u)
 243:Generated_Source\PSoC5/ScanComp_1.c ****         ScanComp_1_STATUS_INT6_AUX_CONTROL |= ScanComp_1_STATUS_INTR_ENBL;
 244:Generated_Source\PSoC5/ScanComp_1.c ****     #endif /* ScanComp_1_NUM_OF_CHANNELS > 48u */
 245:Generated_Source\PSoC5/ScanComp_1.c **** 
 246:Generated_Source\PSoC5/ScanComp_1.c ****     #if (ScanComp_1_NUM_OF_CHANNELS > 56u)
 247:Generated_Source\PSoC5/ScanComp_1.c ****         ScanComp_1_STATUS_INT7_AUX_CONTROL |= ScanComp_1_STATUS_INTR_ENBL;
 248:Generated_Source\PSoC5/ScanComp_1.c ****     #endif /* ScanComp_1_NUM_OF_CHANNELS > 56u */
 249:Generated_Source\PSoC5/ScanComp_1.c **** 
 250:Generated_Source\PSoC5/ScanComp_1.c ****     #if (ScanComp_1_NUM_OF_CHANNELS == 64)
 251:Generated_Source\PSoC5/ScanComp_1.c ****         ScanComp_1_STATUS_INT9_AUX_CONTROL |= ScanComp_1_STATUS_INTR_ENBL;
 252:Generated_Source\PSoC5/ScanComp_1.c ****     #endif /* ScanComp_1_NUM_OF_CHANNELS == 64u */
 253:Generated_Source\PSoC5/ScanComp_1.c **** 
 254:Generated_Source\PSoC5/ScanComp_1.c ****     ScanComp_1_COUNTER_AUX_CONTROL_REG |= ScanComp_1_COUNTER_ENABLE;
  87              		.loc 1 254 0
  88 001e 0432     		adds	r2, r2, #4
ARM GAS  C:\Users\dph5ah\AppData\Local\Temp\ccMZH2Qd.s 			page 7


  89 0020 1378     		ldrb	r3, [r2]	@ zero_extendqisi2
  90 0022 43F02003 		orr	r3, r3, #32
  91 0026 1370     		strb	r3, [r2]
 255:Generated_Source\PSoC5/ScanComp_1.c **** 
 256:Generated_Source\PSoC5/ScanComp_1.c ****     CyExitCriticalSection(interruptState);
  92              		.loc 1 256 0
  93 0028 FFF7FEFF 		bl	CyExitCriticalSection
  94              	.LVL5:
 257:Generated_Source\PSoC5/ScanComp_1.c **** 
 258:Generated_Source\PSoC5/ScanComp_1.c ****     ScanComp_1_CONTROL_REG = ScanComp_1_CONTROL_ENABLE ;
  95              		.loc 1 258 0
  96 002c 0122     		movs	r2, #1
  97 002e 034B     		ldr	r3, .L7+8
  98 0030 1A70     		strb	r2, [r3]
  99 0032 08BD     		pop	{r3, pc}
 100              	.L8:
 101              		.align	2
 102              	.L7:
 103 0034 7D640040 		.word	1073767549
 104 0038 99640040 		.word	1073767577
 105 003c 7C640040 		.word	1073767548
 106              		.cfi_endproc
 107              	.LFE3:
 108              		.size	ScanComp_1_Enable, .-ScanComp_1_Enable
 109              		.section	.text.ScanComp_1_SetSpeed,"ax",%progbits
 110              		.align	2
 111              		.global	ScanComp_1_SetSpeed
 112              		.thumb
 113              		.thumb_func
 114              		.type	ScanComp_1_SetSpeed, %function
 115              	ScanComp_1_SetSpeed:
 116              	.LFB4:
 259:Generated_Source\PSoC5/ScanComp_1.c **** }
 260:Generated_Source\PSoC5/ScanComp_1.c **** 
 261:Generated_Source\PSoC5/ScanComp_1.c **** 
 262:Generated_Source\PSoC5/ScanComp_1.c **** /*******************************************************************************
 263:Generated_Source\PSoC5/ScanComp_1.c **** * Function Name: ScanComp_1_SetSpeed
 264:Generated_Source\PSoC5/ScanComp_1.c **** ********************************************************************************
 265:Generated_Source\PSoC5/ScanComp_1.c **** *
 266:Generated_Source\PSoC5/ScanComp_1.c **** * Summary:
 267:Generated_Source\PSoC5/ScanComp_1.c **** *  Sets the drive power and speed to one of three settings.
 268:Generated_Source\PSoC5/ScanComp_1.c **** *
 269:Generated_Source\PSoC5/ScanComp_1.c **** * Parameters:
 270:Generated_Source\PSoC5/ScanComp_1.c **** *  speed: enumerated speed mode value.
 271:Generated_Source\PSoC5/ScanComp_1.c **** *   ScanComp_1_SLOWSPEED  - Slow speed / Ultra low power
 272:Generated_Source\PSoC5/ScanComp_1.c **** *   ScanComp_1_MEDSPEED   - Medium speed / Medium power
 273:Generated_Source\PSoC5/ScanComp_1.c **** *   ScanComp_1_HIGHSPEED  - High speed / High power
 274:Generated_Source\PSoC5/ScanComp_1.c **** *
 275:Generated_Source\PSoC5/ScanComp_1.c **** * Return:
 276:Generated_Source\PSoC5/ScanComp_1.c **** *  None
 277:Generated_Source\PSoC5/ScanComp_1.c **** *
 278:Generated_Source\PSoC5/ScanComp_1.c **** *******************************************************************************/
 279:Generated_Source\PSoC5/ScanComp_1.c **** void ScanComp_1_SetSpeed(uint8 speed) 
 280:Generated_Source\PSoC5/ScanComp_1.c **** {
 117              		.loc 1 280 0
 118              		.cfi_startproc
 119              		@ args = 0, pretend = 0, frame = 0
ARM GAS  C:\Users\dph5ah\AppData\Local\Temp\ccMZH2Qd.s 			page 8


 120              		@ frame_needed = 0, uses_anonymous_args = 0
 121              	.LVL6:
 122 0000 08B5     		push	{r3, lr}
 123              		.cfi_def_cfa_offset 8
 124              		.cfi_offset 3, -8
 125              		.cfi_offset 14, -4
 281:Generated_Source\PSoC5/ScanComp_1.c ****     #if (CY_PSOC4)
 282:Generated_Source\PSoC5/ScanComp_1.c ****         ScanComp_1_Comp_SetSpeed((uint32)speed);
 283:Generated_Source\PSoC5/ScanComp_1.c ****     #else
 284:Generated_Source\PSoC5/ScanComp_1.c ****         ScanComp_1_Comp_SetSpeed(speed);
 126              		.loc 1 284 0
 127 0002 FFF7FEFF 		bl	ScanComp_1_Comp_SetSpeed
 128              	.LVL7:
 129 0006 08BD     		pop	{r3, pc}
 130              		.cfi_endproc
 131              	.LFE4:
 132              		.size	ScanComp_1_SetSpeed, .-ScanComp_1_SetSpeed
 133              		.section	.text.ScanComp_1_GetInterruptSource,"ax",%progbits
 134              		.align	2
 135              		.global	ScanComp_1_GetInterruptSource
 136              		.thumb
 137              		.thumb_func
 138              		.type	ScanComp_1_GetInterruptSource, %function
 139              	ScanComp_1_GetInterruptSource:
 140              	.LFB5:
 285:Generated_Source\PSoC5/ScanComp_1.c ****     #endif /* CY_PSOC4 */
 286:Generated_Source\PSoC5/ScanComp_1.c **** }
 287:Generated_Source\PSoC5/ScanComp_1.c **** 
 288:Generated_Source\PSoC5/ScanComp_1.c **** 
 289:Generated_Source\PSoC5/ScanComp_1.c **** /*******************************************************************************
 290:Generated_Source\PSoC5/ScanComp_1.c **** * Function Name: ScanComp_1_GetInterruptSource
 291:Generated_Source\PSoC5/ScanComp_1.c **** ********************************************************************************
 292:Generated_Source\PSoC5/ScanComp_1.c **** *
 293:Generated_Source\PSoC5/ScanComp_1.c **** * Summary:
 294:Generated_Source\PSoC5/ScanComp_1.c **** *  Gets the pending interrupt requests from the selected block.
 295:Generated_Source\PSoC5/ScanComp_1.c **** *  Even masked interrupts are returned.
 296:Generated_Source\PSoC5/ScanComp_1.c **** *
 297:Generated_Source\PSoC5/ScanComp_1.c **** * Parameters:
 298:Generated_Source\PSoC5/ScanComp_1.c **** *  InputBlock: Specifies the block of 8 channels whose interrupt requests
 299:Generated_Source\PSoC5/ScanComp_1.c **** *  should be returned.
 300:Generated_Source\PSoC5/ScanComp_1.c **** *
 301:Generated_Source\PSoC5/ScanComp_1.c **** * Return:
 302:Generated_Source\PSoC5/ScanComp_1.c **** *  Bit field of interrupt sources from the selected block of 8 inputs.
 303:Generated_Source\PSoC5/ScanComp_1.c **** *
 304:Generated_Source\PSoC5/ScanComp_1.c **** *******************************************************************************/
 305:Generated_Source\PSoC5/ScanComp_1.c **** uint8 ScanComp_1_GetInterruptSource(uint8 inputBlock) 
 306:Generated_Source\PSoC5/ScanComp_1.c **** {
 141              		.loc 1 306 0
 142              		.cfi_startproc
 143              		@ args = 0, pretend = 0, frame = 0
 144              		@ frame_needed = 0, uses_anonymous_args = 0
 145              		@ link register save eliminated.
 146              	.LVL8:
 307:Generated_Source\PSoC5/ScanComp_1.c ****     uint8 intSrc = 0u;
 308:Generated_Source\PSoC5/ScanComp_1.c **** 
 309:Generated_Source\PSoC5/ScanComp_1.c ****     #if (ScanComp_1_NUM_OF_CHANNELS >= 8u)
 310:Generated_Source\PSoC5/ScanComp_1.c ****         uint8 intMsb = 0u;
ARM GAS  C:\Users\dph5ah\AppData\Local\Temp\ccMZH2Qd.s 			page 9


 311:Generated_Source\PSoC5/ScanComp_1.c ****     #endif /* ScanComp_1_NUM_OF_CHANNELS >= 8u */
 312:Generated_Source\PSoC5/ScanComp_1.c **** 
 313:Generated_Source\PSoC5/ScanComp_1.c ****     static reg8 * const CYCODE interruptStatusRegs[ScanComp_1_NUM_OF_INT_REGISTERS] =
 314:Generated_Source\PSoC5/ScanComp_1.c ****     {
 315:Generated_Source\PSoC5/ScanComp_1.c ****         ScanComp_1_STATUS_INT0_PTR,
 316:Generated_Source\PSoC5/ScanComp_1.c **** 
 317:Generated_Source\PSoC5/ScanComp_1.c ****         #if(ScanComp_1_NUM_OF_CHANNELS > 8u)
 318:Generated_Source\PSoC5/ScanComp_1.c ****             ScanComp_1_STATUS_INT1_PTR,
 319:Generated_Source\PSoC5/ScanComp_1.c ****         #endif /* ScanComp_1_NUM_OF_CHANNELS > 8u */
 320:Generated_Source\PSoC5/ScanComp_1.c **** 
 321:Generated_Source\PSoC5/ScanComp_1.c ****         #if(ScanComp_1_NUM_OF_CHANNELS > 16u)
 322:Generated_Source\PSoC5/ScanComp_1.c ****             ScanComp_1_STATUS_INT2_PTR,
 323:Generated_Source\PSoC5/ScanComp_1.c ****         #endif /* ScanComp_1_NUM_OF_CHANNELS > 16u */
 324:Generated_Source\PSoC5/ScanComp_1.c **** 
 325:Generated_Source\PSoC5/ScanComp_1.c ****         #if(ScanComp_1_NUM_OF_CHANNELS > 24u)
 326:Generated_Source\PSoC5/ScanComp_1.c ****             ScanComp_1_STATUS_INT3_PTR,
 327:Generated_Source\PSoC5/ScanComp_1.c ****         #endif /* ScanComp_1_NUM_OF_CHANNELS > 24u */
 328:Generated_Source\PSoC5/ScanComp_1.c **** 
 329:Generated_Source\PSoC5/ScanComp_1.c ****         #if(ScanComp_1_NUM_OF_CHANNELS > 32u)
 330:Generated_Source\PSoC5/ScanComp_1.c ****             ScanComp_1_STATUS_INT4_PTR,
 331:Generated_Source\PSoC5/ScanComp_1.c ****         #endif /* ScanComp_1_NUM_OF_CHANNELS > 32u */
 332:Generated_Source\PSoC5/ScanComp_1.c **** 
 333:Generated_Source\PSoC5/ScanComp_1.c ****         #if(ScanComp_1_NUM_OF_CHANNELS > 40u)
 334:Generated_Source\PSoC5/ScanComp_1.c ****             ScanComp_1_STATUS_INT5_PTR,
 335:Generated_Source\PSoC5/ScanComp_1.c ****         #endif /* ScanComp_1_NUM_OF_CHANNELS > 40u */
 336:Generated_Source\PSoC5/ScanComp_1.c **** 
 337:Generated_Source\PSoC5/ScanComp_1.c ****         #if(ScanComp_1_NUM_OF_CHANNELS > 48u)
 338:Generated_Source\PSoC5/ScanComp_1.c ****             ScanComp_1_STATUS_INT6_PTR,
 339:Generated_Source\PSoC5/ScanComp_1.c ****         #endif /* ScanComp_1_NUM_OF_CHANNELS > 48u */
 340:Generated_Source\PSoC5/ScanComp_1.c **** 
 341:Generated_Source\PSoC5/ScanComp_1.c ****         #if(ScanComp_1_NUM_OF_CHANNELS > 56u)
 342:Generated_Source\PSoC5/ScanComp_1.c ****             ScanComp_1_STATUS_INT7_PTR,
 343:Generated_Source\PSoC5/ScanComp_1.c ****         #endif /* ScanComp_1_NUM_OF_CHANNELS > 56u */
 344:Generated_Source\PSoC5/ScanComp_1.c ****     };    
 345:Generated_Source\PSoC5/ScanComp_1.c ****     
 346:Generated_Source\PSoC5/ScanComp_1.c ****     if (inputBlock < ScanComp_1_NUM_OF_INT_REGISTERS)
 147              		.loc 1 346 0
 148 0000 20B9     		cbnz	r0, .L13
 347:Generated_Source\PSoC5/ScanComp_1.c ****     {
 348:Generated_Source\PSoC5/ScanComp_1.c ****         intSrc = ((uint8) (* interruptStatusRegs[inputBlock])) & ScanComp_1_INT_REG_MASK;
 149              		.loc 1 348 0
 150 0002 034B     		ldr	r3, .L14
 151 0004 1878     		ldrb	r0, [r3]	@ zero_extendqisi2
 152              	.LVL9:
 153 0006 00F07F00 		and	r0, r0, #127
 154              	.LVL10:
 155 000a 7047     		bx	lr
 156              	.LVL11:
 157              	.L13:
 307:Generated_Source\PSoC5/ScanComp_1.c ****     uint8 intSrc = 0u;
 158              		.loc 1 307 0
 159 000c 0020     		movs	r0, #0
 160              	.LVL12:
 349:Generated_Source\PSoC5/ScanComp_1.c ****     }
 350:Generated_Source\PSoC5/ScanComp_1.c ****     
 351:Generated_Source\PSoC5/ScanComp_1.c ****     #if (ScanComp_1_NUM_OF_CHANNELS > 63u)
 352:Generated_Source\PSoC5/ScanComp_1.c ****         if (inputBlock == 7u)
ARM GAS  C:\Users\dph5ah\AppData\Local\Temp\ccMZH2Qd.s 			page 10


 353:Generated_Source\PSoC5/ScanComp_1.c ****         {
 354:Generated_Source\PSoC5/ScanComp_1.c ****             intMsb = (uint8)(ScanComp_1_STATUS_INT9_REG  << ScanComp_1_7BIT_SHIFT);
 355:Generated_Source\PSoC5/ScanComp_1.c ****         }
 356:Generated_Source\PSoC5/ScanComp_1.c ****         else
 357:Generated_Source\PSoC5/ScanComp_1.c ****         {
 358:Generated_Source\PSoC5/ScanComp_1.c ****             storeStatusReg |= ScanComp_1_STATUS_INT8_REG;
 359:Generated_Source\PSoC5/ScanComp_1.c ****             intMsb = (uint8)((storeStatusReg >> inputBlock) << ScanComp_1_7BIT_SHIFT);
 360:Generated_Source\PSoC5/ScanComp_1.c ****             storeStatusReg = (storeStatusReg & (uint8)(~(uint8)(1u << inputBlock)));
 361:Generated_Source\PSoC5/ScanComp_1.c ****         }
 362:Generated_Source\PSoC5/ScanComp_1.c ****         intSrc |= intMsb;
 363:Generated_Source\PSoC5/ScanComp_1.c ****     #elif (ScanComp_1_NUM_OF_CHANNELS >= 8u)
 364:Generated_Source\PSoC5/ScanComp_1.c ****         if (inputBlock != 7u)
 365:Generated_Source\PSoC5/ScanComp_1.c ****         {
 366:Generated_Source\PSoC5/ScanComp_1.c ****             storeStatusReg |= ScanComp_1_STATUS_INT8_REG;
 367:Generated_Source\PSoC5/ScanComp_1.c ****             intMsb = (uint8)((storeStatusReg >> inputBlock) << ScanComp_1_7BIT_SHIFT);
 368:Generated_Source\PSoC5/ScanComp_1.c ****             storeStatusReg = (storeStatusReg & (uint8)(~(uint8)(1u << inputBlock)));
 369:Generated_Source\PSoC5/ScanComp_1.c ****         }
 370:Generated_Source\PSoC5/ScanComp_1.c ****         intSrc |= intMsb;
 371:Generated_Source\PSoC5/ScanComp_1.c ****     #endif /* ScanComp_1_NUM_OF_CHANNELS > 64u */
 372:Generated_Source\PSoC5/ScanComp_1.c **** 
 373:Generated_Source\PSoC5/ScanComp_1.c ****     return (intSrc);
 374:Generated_Source\PSoC5/ScanComp_1.c **** }
 161              		.loc 1 374 0
 162 000e 7047     		bx	lr
 163              	.L15:
 164              		.align	2
 165              	.L14:
 166 0010 69640040 		.word	1073767529
 167              		.cfi_endproc
 168              	.LFE5:
 169              		.size	ScanComp_1_GetInterruptSource, .-ScanComp_1_GetInterruptSource
 170              		.section	.text.ScanComp_1_GetInterruptMask,"ax",%progbits
 171              		.align	2
 172              		.global	ScanComp_1_GetInterruptMask
 173              		.thumb
 174              		.thumb_func
 175              		.type	ScanComp_1_GetInterruptMask, %function
 176              	ScanComp_1_GetInterruptMask:
 177              	.LFB7:
 375:Generated_Source\PSoC5/ScanComp_1.c **** 
 376:Generated_Source\PSoC5/ScanComp_1.c **** 
 377:Generated_Source\PSoC5/ScanComp_1.c **** /*******************************************************************************
 378:Generated_Source\PSoC5/ScanComp_1.c **** * Function Name: ScanComp_1_GetInterruptSourceMasked
 379:Generated_Source\PSoC5/ScanComp_1.c **** ********************************************************************************
 380:Generated_Source\PSoC5/ScanComp_1.c **** *
 381:Generated_Source\PSoC5/ScanComp_1.c **** * Summary:
 382:Generated_Source\PSoC5/ScanComp_1.c **** *  Gets the pending interrupt requests from the selected block.
 383:Generated_Source\PSoC5/ScanComp_1.c **** *  Masked interrupts are not returned.
 384:Generated_Source\PSoC5/ScanComp_1.c **** *
 385:Generated_Source\PSoC5/ScanComp_1.c **** * Parameters:
 386:Generated_Source\PSoC5/ScanComp_1.c **** *  InputBlock: Specifies the block of 8 channels whose interrupt requests
 387:Generated_Source\PSoC5/ScanComp_1.c **** *  should be returned.
 388:Generated_Source\PSoC5/ScanComp_1.c **** *
 389:Generated_Source\PSoC5/ScanComp_1.c **** * Return:
 390:Generated_Source\PSoC5/ScanComp_1.c **** *  Bit field of interrupt sources from the selected block of 8 inputs.
 391:Generated_Source\PSoC5/ScanComp_1.c **** *
 392:Generated_Source\PSoC5/ScanComp_1.c **** *******************************************************************************/
ARM GAS  C:\Users\dph5ah\AppData\Local\Temp\ccMZH2Qd.s 			page 11


 393:Generated_Source\PSoC5/ScanComp_1.c **** uint8 ScanComp_1_GetInterruptSourceMasked(uint8 inputBlock)   \
 394:Generated_Source\PSoC5/ScanComp_1.c ****                                                 
 395:Generated_Source\PSoC5/ScanComp_1.c **** {
 396:Generated_Source\PSoC5/ScanComp_1.c ****     return (ScanComp_1_GetInterruptSource(inputBlock) & (uint8)~ScanComp_1_GetInterruptMask (inputB
 397:Generated_Source\PSoC5/ScanComp_1.c **** }
 398:Generated_Source\PSoC5/ScanComp_1.c **** 
 399:Generated_Source\PSoC5/ScanComp_1.c **** 
 400:Generated_Source\PSoC5/ScanComp_1.c **** /*******************************************************************************
 401:Generated_Source\PSoC5/ScanComp_1.c **** * Function Name: ScanComp_1_GetInterruptMask
 402:Generated_Source\PSoC5/ScanComp_1.c **** ********************************************************************************
 403:Generated_Source\PSoC5/ScanComp_1.c **** *
 404:Generated_Source\PSoC5/ScanComp_1.c **** * Summary:
 405:Generated_Source\PSoC5/ScanComp_1.c **** *  Gets the current interrupt mask for the selected block.
 406:Generated_Source\PSoC5/ScanComp_1.c **** *
 407:Generated_Source\PSoC5/ScanComp_1.c **** * Parameters:
 408:Generated_Source\PSoC5/ScanComp_1.c **** *  InputBlock: Specifies the block of 8 channels whose interrupt requests
 409:Generated_Source\PSoC5/ScanComp_1.c **** *  should be returned.
 410:Generated_Source\PSoC5/ScanComp_1.c **** *
 411:Generated_Source\PSoC5/ScanComp_1.c **** * Return:
 412:Generated_Source\PSoC5/ScanComp_1.c **** *  The interrupt mask for the given block of channels.
 413:Generated_Source\PSoC5/ScanComp_1.c **** *  A '1' indicates that the interrupt is enabled, a '0' indicates that it 
 414:Generated_Source\PSoC5/ScanComp_1.c **** *  is masked off.
 415:Generated_Source\PSoC5/ScanComp_1.c **** *
 416:Generated_Source\PSoC5/ScanComp_1.c **** *******************************************************************************/
 417:Generated_Source\PSoC5/ScanComp_1.c **** uint8 ScanComp_1_GetInterruptMask(uint8 inputBlock) 
 418:Generated_Source\PSoC5/ScanComp_1.c **** {
 178              		.loc 1 418 0
 179              		.cfi_startproc
 180              		@ args = 0, pretend = 0, frame = 0
 181              		@ frame_needed = 0, uses_anonymous_args = 0
 182              		@ link register save eliminated.
 183              	.LVL13:
 419:Generated_Source\PSoC5/ScanComp_1.c ****     #if (ScanComp_1_NUM_OF_CHANNELS >= 8u)
 420:Generated_Source\PSoC5/ScanComp_1.c ****         uint8 maskMsb = 0u;
 421:Generated_Source\PSoC5/ScanComp_1.c ****     #endif /* ScanComp_1_NUM_OF_CHANNELS >= 8u */
 422:Generated_Source\PSoC5/ScanComp_1.c **** 
 423:Generated_Source\PSoC5/ScanComp_1.c ****     uint8 intSrc = 0u;
 424:Generated_Source\PSoC5/ScanComp_1.c **** 
 425:Generated_Source\PSoC5/ScanComp_1.c ****     if (inputBlock < ScanComp_1_NUM_OF_INT_REGISTERS)
 184              		.loc 1 425 0
 185 0000 18B9     		cbnz	r0, .L18
 426:Generated_Source\PSoC5/ScanComp_1.c ****     {
 427:Generated_Source\PSoC5/ScanComp_1.c ****         intSrc = (uint8) (* interruptStatusMaskRegs[inputBlock]);
 186              		.loc 1 427 0
 187 0002 034B     		ldr	r3, .L19
 188 0004 1878     		ldrb	r0, [r3]	@ zero_extendqisi2
 189              	.LVL14:
 190 0006 C0B2     		uxtb	r0, r0
 191              	.LVL15:
 192 0008 7047     		bx	lr
 193              	.LVL16:
 194              	.L18:
 423:Generated_Source\PSoC5/ScanComp_1.c **** 
 195              		.loc 1 423 0
 196 000a 0020     		movs	r0, #0
 197              	.LVL17:
 428:Generated_Source\PSoC5/ScanComp_1.c ****     }    
ARM GAS  C:\Users\dph5ah\AppData\Local\Temp\ccMZH2Qd.s 			page 12


 429:Generated_Source\PSoC5/ScanComp_1.c **** 
 430:Generated_Source\PSoC5/ScanComp_1.c ****     #if (ScanComp_1_NUM_OF_CHANNELS > 63u)
 431:Generated_Source\PSoC5/ScanComp_1.c ****         if (inputBlock == 7u)
 432:Generated_Source\PSoC5/ScanComp_1.c ****         {
 433:Generated_Source\PSoC5/ScanComp_1.c ****             maskMsb = (uint8)(ScanComp_1_STATUS_INT9_MASK  << ScanComp_1_7BIT_SHIFT);
 434:Generated_Source\PSoC5/ScanComp_1.c ****         }
 435:Generated_Source\PSoC5/ScanComp_1.c ****         else
 436:Generated_Source\PSoC5/ScanComp_1.c ****         {
 437:Generated_Source\PSoC5/ScanComp_1.c ****             maskMsb = (uint8)((ScanComp_1_STATUS_INT8_MASK >> inputBlock) << ScanComp_1_7BIT_SHIFT)
 438:Generated_Source\PSoC5/ScanComp_1.c ****         }
 439:Generated_Source\PSoC5/ScanComp_1.c ****         intSrc |= maskMsb;
 440:Generated_Source\PSoC5/ScanComp_1.c ****     #elif (ScanComp_1_NUM_OF_CHANNELS >= 8u)
 441:Generated_Source\PSoC5/ScanComp_1.c ****         if (inputBlock != 7u)
 442:Generated_Source\PSoC5/ScanComp_1.c ****         {
 443:Generated_Source\PSoC5/ScanComp_1.c ****             maskMsb = (uint8)((ScanComp_1_STATUS_INT8_MASK >> inputBlock) << ScanComp_1_7BIT_SHIFT)
 444:Generated_Source\PSoC5/ScanComp_1.c ****         }
 445:Generated_Source\PSoC5/ScanComp_1.c ****         intSrc |= maskMsb;
 446:Generated_Source\PSoC5/ScanComp_1.c ****     #endif /* ScanComp_1_NUM_OF_CHANNELS > 63u */
 447:Generated_Source\PSoC5/ScanComp_1.c **** 
 448:Generated_Source\PSoC5/ScanComp_1.c ****     return ((uint8)intSrc);
 449:Generated_Source\PSoC5/ScanComp_1.c **** }
 198              		.loc 1 449 0
 199 000c 7047     		bx	lr
 200              	.L20:
 201 000e 00BF     		.align	2
 202              	.L19:
 203 0010 89640040 		.word	1073767561
 204              		.cfi_endproc
 205              	.LFE7:
 206              		.size	ScanComp_1_GetInterruptMask, .-ScanComp_1_GetInterruptMask
 207              		.section	.text.ScanComp_1_GetInterruptSourceMasked,"ax",%progbits
 208              		.align	2
 209              		.global	ScanComp_1_GetInterruptSourceMasked
 210              		.thumb
 211              		.thumb_func
 212              		.type	ScanComp_1_GetInterruptSourceMasked, %function
 213              	ScanComp_1_GetInterruptSourceMasked:
 214              	.LFB6:
 395:Generated_Source\PSoC5/ScanComp_1.c ****     return (ScanComp_1_GetInterruptSource(inputBlock) & (uint8)~ScanComp_1_GetInterruptMask (inputB
 215              		.loc 1 395 0
 216              		.cfi_startproc
 217              		@ args = 0, pretend = 0, frame = 0
 218              		@ frame_needed = 0, uses_anonymous_args = 0
 219              	.LVL18:
 220 0000 38B5     		push	{r3, r4, r5, lr}
 221              		.cfi_def_cfa_offset 16
 222              		.cfi_offset 3, -16
 223              		.cfi_offset 4, -12
 224              		.cfi_offset 5, -8
 225              		.cfi_offset 14, -4
 226 0002 0546     		mov	r5, r0
 396:Generated_Source\PSoC5/ScanComp_1.c **** }
 227              		.loc 1 396 0
 228 0004 FFF7FEFF 		bl	ScanComp_1_GetInterruptSource
 229              	.LVL19:
 230 0008 0446     		mov	r4, r0
 231 000a 2846     		mov	r0, r5
ARM GAS  C:\Users\dph5ah\AppData\Local\Temp\ccMZH2Qd.s 			page 13


 232 000c FFF7FEFF 		bl	ScanComp_1_GetInterruptMask
 233              	.LVL20:
 234 0010 24EA0000 		bic	r0, r4, r0
 397:Generated_Source\PSoC5/ScanComp_1.c **** 
 235              		.loc 1 397 0
 236 0014 C0B2     		uxtb	r0, r0
 237 0016 38BD     		pop	{r3, r4, r5, pc}
 238              		.cfi_endproc
 239              	.LFE6:
 240              		.size	ScanComp_1_GetInterruptSourceMasked, .-ScanComp_1_GetInterruptSourceMasked
 241              		.section	.text.ScanComp_1_SetInterruptMask,"ax",%progbits
 242              		.align	2
 243              		.global	ScanComp_1_SetInterruptMask
 244              		.thumb
 245              		.thumb_func
 246              		.type	ScanComp_1_SetInterruptMask, %function
 247              	ScanComp_1_SetInterruptMask:
 248              	.LFB8:
 450:Generated_Source\PSoC5/ScanComp_1.c **** 
 451:Generated_Source\PSoC5/ScanComp_1.c **** 
 452:Generated_Source\PSoC5/ScanComp_1.c **** /*******************************************************************************
 453:Generated_Source\PSoC5/ScanComp_1.c **** * Function Name: ScanComp_1_SetInterruptMask
 454:Generated_Source\PSoC5/ScanComp_1.c **** ********************************************************************************
 455:Generated_Source\PSoC5/ScanComp_1.c **** *
 456:Generated_Source\PSoC5/ScanComp_1.c **** * Summary:
 457:Generated_Source\PSoC5/ScanComp_1.c **** *  Sets the interrupt masks for the set block of 8 channels.
 458:Generated_Source\PSoC5/ScanComp_1.c **** *
 459:Generated_Source\PSoC5/ScanComp_1.c **** * Parameters:
 460:Generated_Source\PSoC5/ScanComp_1.c **** *  InputBlock: specifies the block of 8 channels whose interrupt requests
 461:Generated_Source\PSoC5/ScanComp_1.c **** *  should be returned.
 462:Generated_Source\PSoC5/ScanComp_1.c **** *  mask: Interrupt mask value for the specified block of 8 or less channels. 
 463:Generated_Source\PSoC5/ScanComp_1.c **** *  A '1' indicates that the interrupt is enabled, a '0' indicates that it 
 464:Generated_Source\PSoC5/ScanComp_1.c **** *  is masked off.
 465:Generated_Source\PSoC5/ScanComp_1.c **** *
 466:Generated_Source\PSoC5/ScanComp_1.c **** * Return:
 467:Generated_Source\PSoC5/ScanComp_1.c **** *  None
 468:Generated_Source\PSoC5/ScanComp_1.c **** *
 469:Generated_Source\PSoC5/ScanComp_1.c **** *******************************************************************************/
 470:Generated_Source\PSoC5/ScanComp_1.c **** void ScanComp_1_SetInterruptMask(uint8 inputBlock, uint8 mask)    \
 471:Generated_Source\PSoC5/ScanComp_1.c ****                                        
 472:Generated_Source\PSoC5/ScanComp_1.c **** {
 249              		.loc 1 472 0
 250              		.cfi_startproc
 251              		@ args = 0, pretend = 0, frame = 0
 252              		@ frame_needed = 0, uses_anonymous_args = 0
 253              		@ link register save eliminated.
 254              	.LVL21:
 473:Generated_Source\PSoC5/ScanComp_1.c ****     uint8 maskLsb = mask & ScanComp_1_7BIT_MASK;
 255              		.loc 1 473 0
 256 0000 01F07F01 		and	r1, r1, #127
 257              	.LVL22:
 474:Generated_Source\PSoC5/ScanComp_1.c **** 
 475:Generated_Source\PSoC5/ScanComp_1.c ****     #if (ScanComp_1_NUM_OF_CHANNELS >= 8u)
 476:Generated_Source\PSoC5/ScanComp_1.c ****         uint8 maskMsb = (uint8)((mask >> ScanComp_1_7BIT_SHIFT) << inputBlock);
 477:Generated_Source\PSoC5/ScanComp_1.c ****     #endif /* ScanComp_1_NUM_OF_CHANNELS >= 8u */
 478:Generated_Source\PSoC5/ScanComp_1.c ****     
 479:Generated_Source\PSoC5/ScanComp_1.c ****     if (inputBlock < ScanComp_1_NUM_OF_INT_REGISTERS)
ARM GAS  C:\Users\dph5ah\AppData\Local\Temp\ccMZH2Qd.s 			page 14


 258              		.loc 1 479 0
 259 0004 08B9     		cbnz	r0, .L23
 480:Generated_Source\PSoC5/ScanComp_1.c ****     {
 481:Generated_Source\PSoC5/ScanComp_1.c ****         (* interruptStatusMaskRegs[inputBlock]) = maskLsb;
 260              		.loc 1 481 0
 261 0006 014B     		ldr	r3, .L25
 262 0008 1970     		strb	r1, [r3]
 263              	.L23:
 264 000a 7047     		bx	lr
 265              	.L26:
 266              		.align	2
 267              	.L25:
 268 000c 89640040 		.word	1073767561
 269              		.cfi_endproc
 270              	.LFE8:
 271              		.size	ScanComp_1_SetInterruptMask, .-ScanComp_1_SetInterruptMask
 272              		.section	.text.ScanComp_1_GetCompare,"ax",%progbits
 273              		.align	2
 274              		.global	ScanComp_1_GetCompare
 275              		.thumb
 276              		.thumb_func
 277              		.type	ScanComp_1_GetCompare, %function
 278              	ScanComp_1_GetCompare:
 279              	.LFB9:
 482:Generated_Source\PSoC5/ScanComp_1.c ****     }    
 483:Generated_Source\PSoC5/ScanComp_1.c **** 
 484:Generated_Source\PSoC5/ScanComp_1.c ****     #if (ScanComp_1_NUM_OF_CHANNELS > 63u)
 485:Generated_Source\PSoC5/ScanComp_1.c ****         if (inputBlock == 7u)
 486:Generated_Source\PSoC5/ScanComp_1.c ****         {
 487:Generated_Source\PSoC5/ScanComp_1.c ****             ScanComp_1_STATUS_INT9_MASK = maskMsb;
 488:Generated_Source\PSoC5/ScanComp_1.c ****         }
 489:Generated_Source\PSoC5/ScanComp_1.c ****         else
 490:Generated_Source\PSoC5/ScanComp_1.c ****         {
 491:Generated_Source\PSoC5/ScanComp_1.c ****             ScanComp_1_STATUS_INT8_MASK = maskMsb;
 492:Generated_Source\PSoC5/ScanComp_1.c ****         }
 493:Generated_Source\PSoC5/ScanComp_1.c **** 
 494:Generated_Source\PSoC5/ScanComp_1.c ****     #elif (ScanComp_1_NUM_OF_CHANNELS >= 8u)
 495:Generated_Source\PSoC5/ScanComp_1.c ****         if (inputBlock != 7u)
 496:Generated_Source\PSoC5/ScanComp_1.c ****         {
 497:Generated_Source\PSoC5/ScanComp_1.c ****             ScanComp_1_STATUS_INT8_MASK = maskMsb;
 498:Generated_Source\PSoC5/ScanComp_1.c ****         }
 499:Generated_Source\PSoC5/ScanComp_1.c ****     #endif /* ScanComp_1_NUM_OF_CHANNELS > 63u */
 500:Generated_Source\PSoC5/ScanComp_1.c **** }
 501:Generated_Source\PSoC5/ScanComp_1.c **** 
 502:Generated_Source\PSoC5/ScanComp_1.c **** 
 503:Generated_Source\PSoC5/ScanComp_1.c **** /*******************************************************************************
 504:Generated_Source\PSoC5/ScanComp_1.c **** * Function Name: ScanComp_1_GetCompare
 505:Generated_Source\PSoC5/ScanComp_1.c **** ********************************************************************************
 506:Generated_Source\PSoC5/ScanComp_1.c **** *
 507:Generated_Source\PSoC5/ScanComp_1.c **** * Summary:
 508:Generated_Source\PSoC5/ScanComp_1.c **** *  Returns a nonzero value when the voltage connected to the positive input
 509:Generated_Source\PSoC5/ScanComp_1.c **** *  is greater than the negative input voltage.
 510:Generated_Source\PSoC5/ScanComp_1.c **** *
 511:Generated_Source\PSoC5/ScanComp_1.c **** * Parameters:
 512:Generated_Source\PSoC5/ScanComp_1.c **** *  channel: channel whose compare output is to be read.
 513:Generated_Source\PSoC5/ScanComp_1.c **** *
 514:Generated_Source\PSoC5/ScanComp_1.c **** * Return:
ARM GAS  C:\Users\dph5ah\AppData\Local\Temp\ccMZH2Qd.s 			page 15


 515:Generated_Source\PSoC5/ScanComp_1.c **** *  Comparator output state
 516:Generated_Source\PSoC5/ScanComp_1.c **** *
 517:Generated_Source\PSoC5/ScanComp_1.c **** *******************************************************************************/
 518:Generated_Source\PSoC5/ScanComp_1.c **** uint8 ScanComp_1_GetCompare(uint8 channel) 
 519:Generated_Source\PSoC5/ScanComp_1.c **** {
 280              		.loc 1 519 0
 281              		.cfi_startproc
 282              		@ args = 0, pretend = 0, frame = 0
 283              		@ frame_needed = 0, uses_anonymous_args = 0
 284              		@ link register save eliminated.
 285              	.LVL23:
 520:Generated_Source\PSoC5/ScanComp_1.c ****     uint8 compVal;
 521:Generated_Source\PSoC5/ScanComp_1.c ****     uint8 chanPos;
 522:Generated_Source\PSoC5/ScanComp_1.c ****     uint8 blockNum;
 523:Generated_Source\PSoC5/ScanComp_1.c **** 
 524:Generated_Source\PSoC5/ScanComp_1.c ****     static reg8 * const CYCODE outputStatusRegs[ScanComp_1_NUM_OF_OUT_REGISTERS] =
 525:Generated_Source\PSoC5/ScanComp_1.c ****     {
 526:Generated_Source\PSoC5/ScanComp_1.c ****         ScanComp_1_STATUS_OUT0_PTR,
 527:Generated_Source\PSoC5/ScanComp_1.c **** 
 528:Generated_Source\PSoC5/ScanComp_1.c ****         #if(ScanComp_1_NUM_OF_CHANNELS > 8u)
 529:Generated_Source\PSoC5/ScanComp_1.c ****             ScanComp_1_STATUS_OUT1_PTR,
 530:Generated_Source\PSoC5/ScanComp_1.c ****         #endif /* ScanComp_1_NUM_OF_CHANNELS > 8u */
 531:Generated_Source\PSoC5/ScanComp_1.c **** 
 532:Generated_Source\PSoC5/ScanComp_1.c ****         #if(ScanComp_1_NUM_OF_CHANNELS > 16u)
 533:Generated_Source\PSoC5/ScanComp_1.c ****             ScanComp_1_STATUS_OUT2_PTR,
 534:Generated_Source\PSoC5/ScanComp_1.c ****         #endif /* ScanComp_1_NUM_OF_CHANNELS > 16u */
 535:Generated_Source\PSoC5/ScanComp_1.c **** 
 536:Generated_Source\PSoC5/ScanComp_1.c ****         #if(ScanComp_1_NUM_OF_CHANNELS > 24u)
 537:Generated_Source\PSoC5/ScanComp_1.c ****             ScanComp_1_STATUS_OUT3_PTR,
 538:Generated_Source\PSoC5/ScanComp_1.c ****         #endif /* ScanComp_1_NUM_OF_CHANNELS > 24u */
 539:Generated_Source\PSoC5/ScanComp_1.c **** 
 540:Generated_Source\PSoC5/ScanComp_1.c ****         #if(ScanComp_1_NUM_OF_CHANNELS > 32u)
 541:Generated_Source\PSoC5/ScanComp_1.c ****             ScanComp_1_STATUS_OUT4_PTR,
 542:Generated_Source\PSoC5/ScanComp_1.c ****         #endif /* ScanComp_1_NUM_OF_CHANNELS > 32u */
 543:Generated_Source\PSoC5/ScanComp_1.c **** 
 544:Generated_Source\PSoC5/ScanComp_1.c ****         #if(ScanComp_1_NUM_OF_CHANNELS > 40u)
 545:Generated_Source\PSoC5/ScanComp_1.c ****             ScanComp_1_STATUS_OUT5_PTR,
 546:Generated_Source\PSoC5/ScanComp_1.c ****         #endif /* ScanComp_1_NUM_OF_CHANNELS > 40u */
 547:Generated_Source\PSoC5/ScanComp_1.c **** 
 548:Generated_Source\PSoC5/ScanComp_1.c ****         #if(ScanComp_1_NUM_OF_CHANNELS > 48u)
 549:Generated_Source\PSoC5/ScanComp_1.c ****             ScanComp_1_STATUS_OUT6_PTR,
 550:Generated_Source\PSoC5/ScanComp_1.c ****         #endif /* ScanComp_1_NUM_OF_CHANNELS > 48u */
 551:Generated_Source\PSoC5/ScanComp_1.c **** 
 552:Generated_Source\PSoC5/ScanComp_1.c ****         #if(ScanComp_1_NUM_OF_CHANNELS > 56u)
 553:Generated_Source\PSoC5/ScanComp_1.c ****             ScanComp_1_STATUS_OUT7_PTR,
 554:Generated_Source\PSoC5/ScanComp_1.c ****         #endif /* ScanComp_1_NUM_OF_CHANNELS > 56u */
 555:Generated_Source\PSoC5/ScanComp_1.c ****     };
 556:Generated_Source\PSoC5/ScanComp_1.c **** 
 557:Generated_Source\PSoC5/ScanComp_1.c ****     /* Identify block number by dividing by 8 */
 558:Generated_Source\PSoC5/ScanComp_1.c ****     blockNum = (channel >> 3u);
 559:Generated_Source\PSoC5/ScanComp_1.c **** 
 560:Generated_Source\PSoC5/ScanComp_1.c ****     /* Identify maximum available channels for block */
 561:Generated_Source\PSoC5/ScanComp_1.c ****     chanPos = (uint8)((blockNum + 1u) << 3u);
 286              		.loc 1 561 0
 287 0000 00F0F803 		and	r3, r0, #248
 288 0004 0833     		adds	r3, r3, #8
 289 0006 DBB2     		uxtb	r3, r3
ARM GAS  C:\Users\dph5ah\AppData\Local\Temp\ccMZH2Qd.s 			page 16


 290              	.LVL24:
 562:Generated_Source\PSoC5/ScanComp_1.c ****     
 563:Generated_Source\PSoC5/ScanComp_1.c ****     /* Identify channel position in the register */
 564:Generated_Source\PSoC5/ScanComp_1.c ****     chanPos = ScanComp_1_MSB_REG_BIT_HIGH >> ((chanPos - 1u) - channel);
 291              		.loc 1 564 0
 292 0008 1B1A     		subs	r3, r3, r0
 293              	.LVL25:
 294 000a 013B     		subs	r3, r3, #1
 295 000c 8020     		movs	r0, #128
 296              	.LVL26:
 297 000e D840     		lsrs	r0, r0, r3
 298              	.LVL27:
 565:Generated_Source\PSoC5/ScanComp_1.c ****     
 566:Generated_Source\PSoC5/ScanComp_1.c ****     /* Input block int register & MSB bit shift */
 567:Generated_Source\PSoC5/ScanComp_1.c ****     compVal = ((uint8) * outputStatusRegs[blockNum]) & chanPos;
 299              		.loc 1 567 0
 300 0010 014B     		ldr	r3, .L28
 301 0012 1B78     		ldrb	r3, [r3]	@ zero_extendqisi2
 302              	.LVL28:
 568:Generated_Source\PSoC5/ScanComp_1.c **** 
 569:Generated_Source\PSoC5/ScanComp_1.c ****     return (compVal);
 570:Generated_Source\PSoC5/ScanComp_1.c **** }
 303              		.loc 1 570 0
 304 0014 1840     		ands	r0, r0, r3
 305              	.LVL29:
 306 0016 7047     		bx	lr
 307              	.L29:
 308              		.align	2
 309              	.L28:
 310 0018 6A650040 		.word	1073767786
 311              		.cfi_endproc
 312              	.LFE9:
 313              		.size	ScanComp_1_GetCompare, .-ScanComp_1_GetCompare
 314              		.section	.text.ScanComp_1_SetDACRange,"ax",%progbits
 315              		.align	2
 316              		.global	ScanComp_1_SetDACRange
 317              		.thumb
 318              		.thumb_func
 319              		.type	ScanComp_1_SetDACRange, %function
 320              	ScanComp_1_SetDACRange:
 321              	.LFB10:
 571:Generated_Source\PSoC5/ScanComp_1.c **** 
 572:Generated_Source\PSoC5/ScanComp_1.c **** #if (ScanComp_1_INTERNAL_REF_IS_USED)
 573:Generated_Source\PSoC5/ScanComp_1.c ****     /*******************************************************************************
 574:Generated_Source\PSoC5/ScanComp_1.c ****     * Function Name: ScanComp_1_SetDACRange
 575:Generated_Source\PSoC5/ScanComp_1.c ****     ********************************************************************************
 576:Generated_Source\PSoC5/ScanComp_1.c ****     *
 577:Generated_Source\PSoC5/ScanComp_1.c ****     * Summary:
 578:Generated_Source\PSoC5/ScanComp_1.c ****     *  Sets the DAC to a new range.
 579:Generated_Source\PSoC5/ScanComp_1.c ****     *
 580:Generated_Source\PSoC5/ScanComp_1.c ****     * Parameters:
 581:Generated_Source\PSoC5/ScanComp_1.c ****     *  uint8 DACRange: new range to be written to the DAC:
 582:Generated_Source\PSoC5/ScanComp_1.c ****     *   ScanComp_1_SCANCOMP_DACRANGE_1V
 583:Generated_Source\PSoC5/ScanComp_1.c ****     *   ScanComp_1_SCANCOMP_DACRANGE_4V
 584:Generated_Source\PSoC5/ScanComp_1.c ****     *
 585:Generated_Source\PSoC5/ScanComp_1.c ****     * Return:
 586:Generated_Source\PSoC5/ScanComp_1.c ****     *  void
ARM GAS  C:\Users\dph5ah\AppData\Local\Temp\ccMZH2Qd.s 			page 17


 587:Generated_Source\PSoC5/ScanComp_1.c ****     *
 588:Generated_Source\PSoC5/ScanComp_1.c ****     *******************************************************************************/
 589:Generated_Source\PSoC5/ScanComp_1.c ****     void ScanComp_1_SetDACRange(uint8 DACRange) 
 590:Generated_Source\PSoC5/ScanComp_1.c ****     {
 322              		.loc 1 590 0
 323              		.cfi_startproc
 324              		@ args = 0, pretend = 0, frame = 0
 325              		@ frame_needed = 0, uses_anonymous_args = 0
 326              	.LVL30:
 327 0000 10B5     		push	{r4, lr}
 328              		.cfi_def_cfa_offset 8
 329              		.cfi_offset 4, -8
 330              		.cfi_offset 14, -4
 331 0002 0446     		mov	r4, r0
 591:Generated_Source\PSoC5/ScanComp_1.c ****         ScanComp_1_VDAC_SetRange(DACRange);
 332              		.loc 1 591 0
 333 0004 FFF7FEFF 		bl	ScanComp_1_VDAC_SetRange
 334              	.LVL31:
 592:Generated_Source\PSoC5/ScanComp_1.c ****         ScanComp_1_compDACRange = DACRange;
 335              		.loc 1 592 0
 336 0008 014B     		ldr	r3, .L32
 337 000a 1C70     		strb	r4, [r3]
 338 000c 10BD     		pop	{r4, pc}
 339              	.L33:
 340 000e 00BF     		.align	2
 341              	.L32:
 342 0010 00000000 		.word	.LANCHOR0
 343              		.cfi_endproc
 344              	.LFE10:
 345              		.size	ScanComp_1_SetDACRange, .-ScanComp_1_SetDACRange
 346              		.section	.text.ScanComp_1_GetDACRange,"ax",%progbits
 347              		.align	2
 348              		.global	ScanComp_1_GetDACRange
 349              		.thumb
 350              		.thumb_func
 351              		.type	ScanComp_1_GetDACRange, %function
 352              	ScanComp_1_GetDACRange:
 353              	.LFB11:
 593:Generated_Source\PSoC5/ScanComp_1.c ****     }
 594:Generated_Source\PSoC5/ScanComp_1.c **** 
 595:Generated_Source\PSoC5/ScanComp_1.c **** 
 596:Generated_Source\PSoC5/ScanComp_1.c ****     /*******************************************************************************
 597:Generated_Source\PSoC5/ScanComp_1.c ****     * Function Name: ScanComp_1_GetDACRange
 598:Generated_Source\PSoC5/ScanComp_1.c ****     ********************************************************************************
 599:Generated_Source\PSoC5/ScanComp_1.c ****     *
 600:Generated_Source\PSoC5/ScanComp_1.c ****     * Summary:
 601:Generated_Source\PSoC5/ScanComp_1.c ****     *  Gets the DAC range setting..
 602:Generated_Source\PSoC5/ScanComp_1.c ****     *
 603:Generated_Source\PSoC5/ScanComp_1.c ****     * Parameters:
 604:Generated_Source\PSoC5/ScanComp_1.c ****     *  None.
 605:Generated_Source\PSoC5/ScanComp_1.c ****     *
 606:Generated_Source\PSoC5/ScanComp_1.c ****     * Return:
 607:Generated_Source\PSoC5/ScanComp_1.c ****     *  uint8 DACrange:
 608:Generated_Source\PSoC5/ScanComp_1.c ****     *   ScanComp_1_SCANCOMP_DACRANGE_1V
 609:Generated_Source\PSoC5/ScanComp_1.c ****     *   ScanComp_1_SCANCOMP_DACRANGE_4V
 610:Generated_Source\PSoC5/ScanComp_1.c ****     *
 611:Generated_Source\PSoC5/ScanComp_1.c ****     *******************************************************************************/
ARM GAS  C:\Users\dph5ah\AppData\Local\Temp\ccMZH2Qd.s 			page 18


 612:Generated_Source\PSoC5/ScanComp_1.c **** 
 613:Generated_Source\PSoC5/ScanComp_1.c ****     uint8 ScanComp_1_GetDACRange(void) 
 614:Generated_Source\PSoC5/ScanComp_1.c ****     {
 354              		.loc 1 614 0
 355              		.cfi_startproc
 356              		@ args = 0, pretend = 0, frame = 0
 357              		@ frame_needed = 0, uses_anonymous_args = 0
 358              		@ link register save eliminated.
 615:Generated_Source\PSoC5/ScanComp_1.c ****         return (ScanComp_1_compDACRange);
 616:Generated_Source\PSoC5/ScanComp_1.c ****     }
 359              		.loc 1 616 0
 360 0000 014B     		ldr	r3, .L35
 361 0002 1878     		ldrb	r0, [r3]	@ zero_extendqisi2
 362 0004 7047     		bx	lr
 363              	.L36:
 364 0006 00BF     		.align	2
 365              	.L35:
 366 0008 00000000 		.word	.LANCHOR0
 367              		.cfi_endproc
 368              	.LFE11:
 369              		.size	ScanComp_1_GetDACRange, .-ScanComp_1_GetDACRange
 370              		.section	.text.ScanComp_1_SetDACVoltage,"ax",%progbits
 371              		.align	2
 372              		.global	ScanComp_1_SetDACVoltage
 373              		.thumb
 374              		.thumb_func
 375              		.type	ScanComp_1_SetDACVoltage, %function
 376              	ScanComp_1_SetDACVoltage:
 377              	.LFB12:
 617:Generated_Source\PSoC5/ScanComp_1.c **** 
 618:Generated_Source\PSoC5/ScanComp_1.c **** 
 619:Generated_Source\PSoC5/ScanComp_1.c ****     #if (ScanComp_1_VDAC_PER_CHANNEL_MODE_USED)
 620:Generated_Source\PSoC5/ScanComp_1.c **** 
 621:Generated_Source\PSoC5/ScanComp_1.c ****         /*******************************************************************************
 622:Generated_Source\PSoC5/ScanComp_1.c ****         * Function Name: ScanComp_1_SetChannelDACVoltage
 623:Generated_Source\PSoC5/ScanComp_1.c ****         ********************************************************************************
 624:Generated_Source\PSoC5/ScanComp_1.c ****         *
 625:Generated_Source\PSoC5/ScanComp_1.c ****         * Summary:
 626:Generated_Source\PSoC5/ScanComp_1.c ****         *  Sets the DAC output for a specific channel to a new voltage.
 627:Generated_Source\PSoC5/ScanComp_1.c ****         *
 628:Generated_Source\PSoC5/ScanComp_1.c ****         * Parameters:
 629:Generated_Source\PSoC5/ScanComp_1.c ****         *  Channel: Specifies the channel whose DAC voltage should be changed. 0
 630:Generated_Source\PSoC5/ScanComp_1.c ****         *           indexed.
 631:Generated_Source\PSoC5/ScanComp_1.c ****         *  DACVoltage: Voltage to be written to the DAC, in units depending on the
 632:Generated_Source\PSoC5/ScanComp_1.c ****         *              selected range (4 or 16 mV per bit in 1 or 4V range,
 633:Generated_Source\PSoC5/ScanComp_1.c ****         *              respectively). Should only be used when the DAC is enabled and
 634:Generated_Source\PSoC5/ScanComp_1.c ****         *              voltage is per channel.
 635:Generated_Source\PSoC5/ScanComp_1.c ****         *
 636:Generated_Source\PSoC5/ScanComp_1.c ****         * Return:
 637:Generated_Source\PSoC5/ScanComp_1.c ****         *  void
 638:Generated_Source\PSoC5/ScanComp_1.c ****         *
 639:Generated_Source\PSoC5/ScanComp_1.c ****         *******************************************************************************/
 640:Generated_Source\PSoC5/ScanComp_1.c ****         void ScanComp_1_SetChannelDACVoltage(uint8 channel, uint8 DACVoltage) \
 641:Generated_Source\PSoC5/ScanComp_1.c ****                                                    
 642:Generated_Source\PSoC5/ScanComp_1.c ****         {
 643:Generated_Source\PSoC5/ScanComp_1.c ****             if (channel < ScanComp_1_NUM_OF_CHANNELS)
 644:Generated_Source\PSoC5/ScanComp_1.c ****             {
ARM GAS  C:\Users\dph5ah\AppData\Local\Temp\ccMZH2Qd.s 			page 19


 645:Generated_Source\PSoC5/ScanComp_1.c ****                 ScanComp_1_DacVoltages[(ScanComp_1_DEFAULT_CHANNELS_VAL - channel)] = DACVoltage;
 646:Generated_Source\PSoC5/ScanComp_1.c ****             }
 647:Generated_Source\PSoC5/ScanComp_1.c ****         }
 648:Generated_Source\PSoC5/ScanComp_1.c **** 
 649:Generated_Source\PSoC5/ScanComp_1.c **** 
 650:Generated_Source\PSoC5/ScanComp_1.c ****         /*******************************************************************************
 651:Generated_Source\PSoC5/ScanComp_1.c ****         * Function Name: ScanComp_1_GetChannelDACVoltage
 652:Generated_Source\PSoC5/ScanComp_1.c ****         ********************************************************************************
 653:Generated_Source\PSoC5/ScanComp_1.c ****         *
 654:Generated_Source\PSoC5/ScanComp_1.c ****         * Summary:
 655:Generated_Source\PSoC5/ScanComp_1.c ****         *  Gets the DAC output voltage for a specific channel.
 656:Generated_Source\PSoC5/ScanComp_1.c ****         *
 657:Generated_Source\PSoC5/ScanComp_1.c ****         * Parameters:
 658:Generated_Source\PSoC5/ScanComp_1.c ****         *  Channel: Specifies the channel whose DAC voltage should be returned.
 659:Generated_Source\PSoC5/ScanComp_1.c ****         *
 660:Generated_Source\PSoC5/ScanComp_1.c ****         * Return:
 661:Generated_Source\PSoC5/ScanComp_1.c ****         *  Voltage the DAC is configured for, for the given channel, in units
 662:Generated_Source\PSoC5/ScanComp_1.c ****         *  depending on the selected range (4 or 16 mV per bit in 1 or 4V range,
 663:Generated_Source\PSoC5/ScanComp_1.c ****         *  respectively).
 664:Generated_Source\PSoC5/ScanComp_1.c ****         *
 665:Generated_Source\PSoC5/ScanComp_1.c ****         *******************************************************************************/
 666:Generated_Source\PSoC5/ScanComp_1.c ****         uint8 ScanComp_1_GetChannelDACVoltage(uint8 channel)  \
 667:Generated_Source\PSoC5/ScanComp_1.c ****                                                     
 668:Generated_Source\PSoC5/ScanComp_1.c ****         {
 669:Generated_Source\PSoC5/ScanComp_1.c ****             uint8 DACVoltage = 0u;
 670:Generated_Source\PSoC5/ScanComp_1.c **** 
 671:Generated_Source\PSoC5/ScanComp_1.c ****             if (channel < ScanComp_1_NUM_OF_CHANNELS)
 672:Generated_Source\PSoC5/ScanComp_1.c ****             {
 673:Generated_Source\PSoC5/ScanComp_1.c ****                 DACVoltage = ScanComp_1_DacVoltages[(ScanComp_1_DEFAULT_CHANNELS_VAL - channel)];
 674:Generated_Source\PSoC5/ScanComp_1.c ****             }
 675:Generated_Source\PSoC5/ScanComp_1.c **** 
 676:Generated_Source\PSoC5/ScanComp_1.c ****             return (DACVoltage);
 677:Generated_Source\PSoC5/ScanComp_1.c ****         }
 678:Generated_Source\PSoC5/ScanComp_1.c ****         
 679:Generated_Source\PSoC5/ScanComp_1.c ****         
 680:Generated_Source\PSoC5/ScanComp_1.c ****         /*******************************************************************************
 681:Generated_Source\PSoC5/ScanComp_1.c ****         * Function Name: ScanComp_1_InitDma
 682:Generated_Source\PSoC5/ScanComp_1.c ****         ********************************************************************************
 683:Generated_Source\PSoC5/ScanComp_1.c ****         *
 684:Generated_Source\PSoC5/ScanComp_1.c ****         * Summary:
 685:Generated_Source\PSoC5/ScanComp_1.c ****         *  Configures a DMA transfer of channel values from memory to VDAC.
 686:Generated_Source\PSoC5/ScanComp_1.c ****         *
 687:Generated_Source\PSoC5/ScanComp_1.c ****         * Parameters:
 688:Generated_Source\PSoC5/ScanComp_1.c ****         *  None
 689:Generated_Source\PSoC5/ScanComp_1.c ****         *
 690:Generated_Source\PSoC5/ScanComp_1.c ****         * Return:
 691:Generated_Source\PSoC5/ScanComp_1.c ****         *  None
 692:Generated_Source\PSoC5/ScanComp_1.c ****         *
 693:Generated_Source\PSoC5/ScanComp_1.c ****         *******************************************************************************/
 694:Generated_Source\PSoC5/ScanComp_1.c ****         static void ScanComp_1_InitDma(void)  
 695:Generated_Source\PSoC5/ScanComp_1.c ****         {
 696:Generated_Source\PSoC5/ScanComp_1.c ****             /***************************************************************************
 697:Generated_Source\PSoC5/ScanComp_1.c ****             * Transfers channel values from SRAM to VDAC register. One byte transfer,
 698:Generated_Source\PSoC5/ScanComp_1.c ****             * each burst requires a request.
 699:Generated_Source\PSoC5/ScanComp_1.c ****             ***************************************************************************/
 700:Generated_Source\PSoC5/ScanComp_1.c ****             ScanComp_1_DMA_VDACUpdate_Chan =  ScanComp_1_DMA_DmaInitialize(
 701:Generated_Source\PSoC5/ScanComp_1.c ****                                                     ScanComp_1_DMA_BYTES_PER_BURST,
ARM GAS  C:\Users\dph5ah\AppData\Local\Temp\ccMZH2Qd.s 			page 20


 702:Generated_Source\PSoC5/ScanComp_1.c ****                                                     ScanComp_1_DMA_REQUEST_PER_BURST,
 703:Generated_Source\PSoC5/ScanComp_1.c ****                                                     HI16(ScanComp_1_DMA_SRC_BASE),
 704:Generated_Source\PSoC5/ScanComp_1.c ****                                                     HI16(ScanComp_1_DMA_DST_BASE));
 705:Generated_Source\PSoC5/ScanComp_1.c **** 
 706:Generated_Source\PSoC5/ScanComp_1.c ****             ScanComp_1_DMA_VDACUpdate_TD = CyDmaTdAllocate();
 707:Generated_Source\PSoC5/ScanComp_1.c **** 
 708:Generated_Source\PSoC5/ScanComp_1.c **** 
 709:Generated_Source\PSoC5/ScanComp_1.c ****             /***************************************************************************
 710:Generated_Source\PSoC5/ScanComp_1.c ****             * One TD looping on itself, increment the source address, but not the
 711:Generated_Source\PSoC5/ScanComp_1.c ****             * destination address.
 712:Generated_Source\PSoC5/ScanComp_1.c ****             ***************************************************************************/
 713:Generated_Source\PSoC5/ScanComp_1.c ****             (void) CyDmaTdSetConfiguration( ScanComp_1_DMA_VDACUpdate_TD,
 714:Generated_Source\PSoC5/ScanComp_1.c ****                                             ScanComp_1_NUM_OF_CHANNELS,
 715:Generated_Source\PSoC5/ScanComp_1.c ****                                             ScanComp_1_DMA_VDACUpdate_TD,
 716:Generated_Source\PSoC5/ScanComp_1.c ****                                             TD_INC_SRC_ADR);
 717:Generated_Source\PSoC5/ScanComp_1.c **** 
 718:Generated_Source\PSoC5/ScanComp_1.c ****             /* Transfers the value for each channel from memory to VDAC */
 719:Generated_Source\PSoC5/ScanComp_1.c ****             (void) CyDmaTdSetAddress(   ScanComp_1_DMA_VDACUpdate_TD,
 720:Generated_Source\PSoC5/ScanComp_1.c ****                                         LO16((uint32)ScanComp_1_DacVoltages),
 721:Generated_Source\PSoC5/ScanComp_1.c ****                                         LO16((uint32)ScanComp_1_VDAC_Data_PTR));
 722:Generated_Source\PSoC5/ScanComp_1.c **** 
 723:Generated_Source\PSoC5/ScanComp_1.c ****             (void) CyDmaChSetInitialTd(ScanComp_1_DMA_VDACUpdate_Chan, ScanComp_1_DMA_VDACUpdate_TD
 724:Generated_Source\PSoC5/ScanComp_1.c ****         }
 725:Generated_Source\PSoC5/ScanComp_1.c **** 
 726:Generated_Source\PSoC5/ScanComp_1.c ****     #else
 727:Generated_Source\PSoC5/ScanComp_1.c ****         
 728:Generated_Source\PSoC5/ScanComp_1.c ****         /*******************************************************************************
 729:Generated_Source\PSoC5/ScanComp_1.c ****         * Function Name: ScanComp_1_SetDACVoltage
 730:Generated_Source\PSoC5/ScanComp_1.c ****         ********************************************************************************
 731:Generated_Source\PSoC5/ScanComp_1.c ****         *
 732:Generated_Source\PSoC5/ScanComp_1.c ****         * Summary:
 733:Generated_Source\PSoC5/ScanComp_1.c ****         *  Sets the DAC output to a new voltage.
 734:Generated_Source\PSoC5/ScanComp_1.c ****         *
 735:Generated_Source\PSoC5/ScanComp_1.c ****         * Parameters:
 736:Generated_Source\PSoC5/ScanComp_1.c ****         *  DACVoltage: Voltage to be written to the DAC, in units depending
 737:Generated_Source\PSoC5/ScanComp_1.c ****         *  on the selected range
 738:Generated_Source\PSoC5/ScanComp_1.c ****         *
 739:Generated_Source\PSoC5/ScanComp_1.c ****         * Return:
 740:Generated_Source\PSoC5/ScanComp_1.c ****         *  void
 741:Generated_Source\PSoC5/ScanComp_1.c ****         *
 742:Generated_Source\PSoC5/ScanComp_1.c ****         *******************************************************************************/
 743:Generated_Source\PSoC5/ScanComp_1.c ****         void ScanComp_1_SetDACVoltage(uint8 DACVoltage) 
 744:Generated_Source\PSoC5/ScanComp_1.c ****         {
 378              		.loc 1 744 0
 379              		.cfi_startproc
 380              		@ args = 0, pretend = 0, frame = 0
 381              		@ frame_needed = 0, uses_anonymous_args = 0
 382              	.LVL32:
 383 0000 10B5     		push	{r4, lr}
 384              		.cfi_def_cfa_offset 8
 385              		.cfi_offset 4, -8
 386              		.cfi_offset 14, -4
 387 0002 0446     		mov	r4, r0
 745:Generated_Source\PSoC5/ScanComp_1.c ****             ScanComp_1_VDAC_SetValue(DACVoltage);
 388              		.loc 1 745 0
 389 0004 FFF7FEFF 		bl	ScanComp_1_VDAC_SetValue
 390              	.LVL33:
ARM GAS  C:\Users\dph5ah\AppData\Local\Temp\ccMZH2Qd.s 			page 21


 746:Generated_Source\PSoC5/ScanComp_1.c ****             ScanComp_1_compDACVoltage = DACVoltage;
 391              		.loc 1 746 0
 392 0008 014B     		ldr	r3, .L39
 393 000a 5C70     		strb	r4, [r3, #1]
 394 000c 10BD     		pop	{r4, pc}
 395              	.L40:
 396 000e 00BF     		.align	2
 397              	.L39:
 398 0010 00000000 		.word	.LANCHOR0
 399              		.cfi_endproc
 400              	.LFE12:
 401              		.size	ScanComp_1_SetDACVoltage, .-ScanComp_1_SetDACVoltage
 402              		.section	.text.ScanComp_1_Init,"ax",%progbits
 403              		.align	2
 404              		.global	ScanComp_1_Init
 405              		.thumb
 406              		.thumb_func
 407              		.type	ScanComp_1_Init, %function
 408              	ScanComp_1_Init:
 409              	.LFB1:
 125:Generated_Source\PSoC5/ScanComp_1.c ****     #if (ScanComp_1_NUM_OF_CHANNELS >= 8u)
 410              		.loc 1 125 0
 411              		.cfi_startproc
 412              		@ args = 0, pretend = 0, frame = 0
 413              		@ frame_needed = 0, uses_anonymous_args = 0
 414 0000 08B5     		push	{r3, lr}
 415              		.cfi_def_cfa_offset 8
 416              		.cfi_offset 3, -8
 417              		.cfi_offset 14, -4
 130:Generated_Source\PSoC5/ScanComp_1.c ****     
 418              		.loc 1 130 0
 419 0002 FFF7FEFF 		bl	ScanComp_1_Comp_Init
 420              	.LVL34:
 133:Generated_Source\PSoC5/ScanComp_1.c ****         ScanComp_1_compDACRange = ScanComp_1_DEFAULT_RANGE;
 421              		.loc 1 133 0
 422 0006 FFF7FEFF 		bl	ScanComp_1_VDAC_Init
 423              	.LVL35:
 134:Generated_Source\PSoC5/ScanComp_1.c **** 
 424              		.loc 1 134 0
 425 000a 0422     		movs	r2, #4
 426 000c 024B     		ldr	r3, .L43
 427 000e 1A70     		strb	r2, [r3]
 144:Generated_Source\PSoC5/ScanComp_1.c ****         #endif /* ScanComp_1_VDAC_PER_CHANNEL_MODE_USED */
 428              		.loc 1 144 0
 429 0010 FA20     		movs	r0, #250
 430 0012 FFF7FEFF 		bl	ScanComp_1_SetDACVoltage
 431              	.LVL36:
 432 0016 08BD     		pop	{r3, pc}
 433              	.L44:
 434              		.align	2
 435              	.L43:
 436 0018 00000000 		.word	.LANCHOR0
 437              		.cfi_endproc
 438              	.LFE1:
 439              		.size	ScanComp_1_Init, .-ScanComp_1_Init
 440              		.section	.text.ScanComp_1_Start,"ax",%progbits
 441              		.align	2
ARM GAS  C:\Users\dph5ah\AppData\Local\Temp\ccMZH2Qd.s 			page 22


 442              		.global	ScanComp_1_Start
 443              		.thumb
 444              		.thumb_func
 445              		.type	ScanComp_1_Start, %function
 446              	ScanComp_1_Start:
 447              	.LFB0:
  99:Generated_Source\PSoC5/ScanComp_1.c ****     if(0u == ScanComp_1_initVar)
 448              		.loc 1 99 0
 449              		.cfi_startproc
 450              		@ args = 0, pretend = 0, frame = 0
 451              		@ frame_needed = 0, uses_anonymous_args = 0
 452 0000 08B5     		push	{r3, lr}
 453              		.cfi_def_cfa_offset 8
 454              		.cfi_offset 3, -8
 455              		.cfi_offset 14, -4
 100:Generated_Source\PSoC5/ScanComp_1.c ****     {
 456              		.loc 1 100 0
 457 0002 054B     		ldr	r3, .L48
 458 0004 9B78     		ldrb	r3, [r3, #2]	@ zero_extendqisi2
 459 0006 23B9     		cbnz	r3, .L46
 102:Generated_Source\PSoC5/ScanComp_1.c ****         ScanComp_1_initVar = 1u;
 460              		.loc 1 102 0
 461 0008 FFF7FEFF 		bl	ScanComp_1_Init
 462              	.LVL37:
 103:Generated_Source\PSoC5/ScanComp_1.c ****     }
 463              		.loc 1 103 0
 464 000c 0122     		movs	r2, #1
 465 000e 024B     		ldr	r3, .L48
 466 0010 9A70     		strb	r2, [r3, #2]
 467              	.L46:
 105:Generated_Source\PSoC5/ScanComp_1.c **** }
 468              		.loc 1 105 0
 469 0012 FFF7FEFF 		bl	ScanComp_1_Enable
 470              	.LVL38:
 471 0016 08BD     		pop	{r3, pc}
 472              	.L49:
 473              		.align	2
 474              	.L48:
 475 0018 00000000 		.word	.LANCHOR0
 476              		.cfi_endproc
 477              	.LFE0:
 478              		.size	ScanComp_1_Start, .-ScanComp_1_Start
 479              		.section	.text.ScanComp_1_GetDACVoltage,"ax",%progbits
 480              		.align	2
 481              		.global	ScanComp_1_GetDACVoltage
 482              		.thumb
 483              		.thumb_func
 484              		.type	ScanComp_1_GetDACVoltage, %function
 485              	ScanComp_1_GetDACVoltage:
 486              	.LFB13:
 747:Generated_Source\PSoC5/ScanComp_1.c ****         }
 748:Generated_Source\PSoC5/ScanComp_1.c **** 
 749:Generated_Source\PSoC5/ScanComp_1.c **** 
 750:Generated_Source\PSoC5/ScanComp_1.c ****         /*******************************************************************************
 751:Generated_Source\PSoC5/ScanComp_1.c ****         * Function Name: ScanComp_1_GetDACVoltage
 752:Generated_Source\PSoC5/ScanComp_1.c ****         ********************************************************************************
 753:Generated_Source\PSoC5/ScanComp_1.c ****         *
ARM GAS  C:\Users\dph5ah\AppData\Local\Temp\ccMZH2Qd.s 			page 23


 754:Generated_Source\PSoC5/ScanComp_1.c ****         * Summary:
 755:Generated_Source\PSoC5/ScanComp_1.c ****         *  Gets the DAC output to a new voltage.
 756:Generated_Source\PSoC5/ScanComp_1.c ****         *
 757:Generated_Source\PSoC5/ScanComp_1.c ****         * Parameters:
 758:Generated_Source\PSoC5/ScanComp_1.c ****         *  None
 759:Generated_Source\PSoC5/ScanComp_1.c ****         *
 760:Generated_Source\PSoC5/ScanComp_1.c ****         * Return:
 761:Generated_Source\PSoC5/ScanComp_1.c ****         *  Voltage the DAC is configured for, in units depending on the selected range
 762:Generated_Source\PSoC5/ScanComp_1.c ****         *  (4 or 16 mV per bit in 1 or 4V range, respectively).
 763:Generated_Source\PSoC5/ScanComp_1.c ****         *
 764:Generated_Source\PSoC5/ScanComp_1.c ****         *******************************************************************************/
 765:Generated_Source\PSoC5/ScanComp_1.c ****         uint8 ScanComp_1_GetDACVoltage(void) 
 766:Generated_Source\PSoC5/ScanComp_1.c ****         {
 487              		.loc 1 766 0
 488              		.cfi_startproc
 489              		@ args = 0, pretend = 0, frame = 0
 490              		@ frame_needed = 0, uses_anonymous_args = 0
 491              		@ link register save eliminated.
 767:Generated_Source\PSoC5/ScanComp_1.c ****             return (ScanComp_1_compDACVoltage);
 768:Generated_Source\PSoC5/ScanComp_1.c ****         }
 492              		.loc 1 768 0
 493 0000 014B     		ldr	r3, .L51
 494 0002 5878     		ldrb	r0, [r3, #1]	@ zero_extendqisi2
 495 0004 7047     		bx	lr
 496              	.L52:
 497 0006 00BF     		.align	2
 498              	.L51:
 499 0008 00000000 		.word	.LANCHOR0
 500              		.cfi_endproc
 501              	.LFE13:
 502              		.size	ScanComp_1_GetDACVoltage, .-ScanComp_1_GetDACVoltage
 503              		.global	ScanComp_1_initVar
 504              		.bss
 505              		.set	.LANCHOR0,. + 0
 506              		.type	ScanComp_1_compDACRange, %object
 507              		.size	ScanComp_1_compDACRange, 1
 508              	ScanComp_1_compDACRange:
 509 0000 00       		.space	1
 510              		.type	ScanComp_1_compDACVoltage, %object
 511              		.size	ScanComp_1_compDACVoltage, 1
 512              	ScanComp_1_compDACVoltage:
 513 0001 00       		.space	1
 514              		.type	ScanComp_1_initVar, %object
 515              		.size	ScanComp_1_initVar, 1
 516              	ScanComp_1_initVar:
 517 0002 00       		.space	1
 518              		.text
 519              	.Letext0:
 520              		.file 2 "Generated_Source\\PSoC5\\cytypes.h"
 521              		.file 3 "Generated_Source\\PSoC5\\ScanComp_1_Comp.h"
 522              		.file 4 "Generated_Source\\PSoC5\\ScanComp_1_VDAC.h"
 523              		.file 5 "Generated_Source\\PSoC5\\cyLib.h"