ARM GAS  C:\Users\dph5ah\AppData\Local\Temp\ccmUiPmA.s 			page 1


   1              		.syntax unified
   2              		.cpu cortex-m3
   3              		.fpu softvfp
   4              		.eabi_attribute 20, 1
   5              		.eabi_attribute 21, 1
   6              		.eabi_attribute 23, 3
   7              		.eabi_attribute 24, 1
   8              		.eabi_attribute 25, 1
   9              		.eabi_attribute 26, 1
  10              		.eabi_attribute 30, 1
  11              		.eabi_attribute 34, 1
  12              		.eabi_attribute 18, 4
  13              		.thumb
  14              		.file	"VFD_1_MuxDMA_dma.c"
  15              		.text
  16              	.Ltext0:
  17              		.cfi_sections	.debug_frame
  18              		.section	.text.VFD_1_MuxDMA_DmaInitialize,"ax",%progbits
  19              		.align	2
  20              		.global	VFD_1_MuxDMA_DmaInitialize
  21              		.thumb
  22              		.thumb_func
  23              		.type	VFD_1_MuxDMA_DmaInitialize, %function
  24              	VFD_1_MuxDMA_DmaInitialize:
  25              	.LFB0:
  26              		.file 1 "Generated_Source\\PSoC5\\VFD_1_MuxDMA_dma.c"
   1:Generated_Source\PSoC5/VFD_1_MuxDMA_dma.c **** /***************************************************************************
   2:Generated_Source\PSoC5/VFD_1_MuxDMA_dma.c **** * File Name: VFD_1_MuxDMA_dma.c  
   3:Generated_Source\PSoC5/VFD_1_MuxDMA_dma.c **** * Version 1.70
   4:Generated_Source\PSoC5/VFD_1_MuxDMA_dma.c **** *
   5:Generated_Source\PSoC5/VFD_1_MuxDMA_dma.c **** *  Description:
   6:Generated_Source\PSoC5/VFD_1_MuxDMA_dma.c **** *   Provides an API for the DMAC component. The API includes functions
   7:Generated_Source\PSoC5/VFD_1_MuxDMA_dma.c **** *   for the DMA controller, DMA channels and Transfer Descriptors.
   8:Generated_Source\PSoC5/VFD_1_MuxDMA_dma.c **** *
   9:Generated_Source\PSoC5/VFD_1_MuxDMA_dma.c **** *
  10:Generated_Source\PSoC5/VFD_1_MuxDMA_dma.c **** *   Note:
  11:Generated_Source\PSoC5/VFD_1_MuxDMA_dma.c **** *     This module requires the developer to finish or fill in the auto
  12:Generated_Source\PSoC5/VFD_1_MuxDMA_dma.c **** *     generated funcions and setup the dma channel and TD's.
  13:Generated_Source\PSoC5/VFD_1_MuxDMA_dma.c **** *
  14:Generated_Source\PSoC5/VFD_1_MuxDMA_dma.c **** ********************************************************************************
  15:Generated_Source\PSoC5/VFD_1_MuxDMA_dma.c **** * Copyright 2008-2010, Cypress Semiconductor Corporation.  All rights reserved.
  16:Generated_Source\PSoC5/VFD_1_MuxDMA_dma.c **** * You may use this file only in accordance with the license, terms, conditions, 
  17:Generated_Source\PSoC5/VFD_1_MuxDMA_dma.c **** * disclaimers, and limitations in the end user license agreement accompanying 
  18:Generated_Source\PSoC5/VFD_1_MuxDMA_dma.c **** * the software package with which this file was provided.
  19:Generated_Source\PSoC5/VFD_1_MuxDMA_dma.c **** ********************************************************************************/
  20:Generated_Source\PSoC5/VFD_1_MuxDMA_dma.c **** #include <CYLIB.H>
  21:Generated_Source\PSoC5/VFD_1_MuxDMA_dma.c **** #include <CYDMAC.H>
  22:Generated_Source\PSoC5/VFD_1_MuxDMA_dma.c **** #include <VFD_1_MuxDMA_dma.H>
  23:Generated_Source\PSoC5/VFD_1_MuxDMA_dma.c **** 
  24:Generated_Source\PSoC5/VFD_1_MuxDMA_dma.c **** 
  25:Generated_Source\PSoC5/VFD_1_MuxDMA_dma.c **** 
  26:Generated_Source\PSoC5/VFD_1_MuxDMA_dma.c **** /****************************************************************************
  27:Generated_Source\PSoC5/VFD_1_MuxDMA_dma.c **** * 
  28:Generated_Source\PSoC5/VFD_1_MuxDMA_dma.c **** * The following defines are available in Cyfitter.h
  29:Generated_Source\PSoC5/VFD_1_MuxDMA_dma.c **** * 
  30:Generated_Source\PSoC5/VFD_1_MuxDMA_dma.c **** * 
  31:Generated_Source\PSoC5/VFD_1_MuxDMA_dma.c **** * 
ARM GAS  C:\Users\dph5ah\AppData\Local\Temp\ccmUiPmA.s 			page 2


  32:Generated_Source\PSoC5/VFD_1_MuxDMA_dma.c **** * VFD_1_MuxDMA__DRQ_CTL_REG
  33:Generated_Source\PSoC5/VFD_1_MuxDMA_dma.c **** * 
  34:Generated_Source\PSoC5/VFD_1_MuxDMA_dma.c **** * 
  35:Generated_Source\PSoC5/VFD_1_MuxDMA_dma.c **** * VFD_1_MuxDMA__DRQ_NUMBER
  36:Generated_Source\PSoC5/VFD_1_MuxDMA_dma.c **** * 
  37:Generated_Source\PSoC5/VFD_1_MuxDMA_dma.c **** * Number of TD's used by this channel.
  38:Generated_Source\PSoC5/VFD_1_MuxDMA_dma.c **** * VFD_1_MuxDMA__NUMBEROF_TDS
  39:Generated_Source\PSoC5/VFD_1_MuxDMA_dma.c **** * 
  40:Generated_Source\PSoC5/VFD_1_MuxDMA_dma.c **** * Priority of this channel.
  41:Generated_Source\PSoC5/VFD_1_MuxDMA_dma.c **** * VFD_1_MuxDMA__PRIORITY
  42:Generated_Source\PSoC5/VFD_1_MuxDMA_dma.c **** * 
  43:Generated_Source\PSoC5/VFD_1_MuxDMA_dma.c **** * True if VFD_1_MuxDMA_TERMIN_SEL is used.
  44:Generated_Source\PSoC5/VFD_1_MuxDMA_dma.c **** * VFD_1_MuxDMA__TERMIN_EN
  45:Generated_Source\PSoC5/VFD_1_MuxDMA_dma.c **** * 
  46:Generated_Source\PSoC5/VFD_1_MuxDMA_dma.c **** * TERMIN interrupt line to signal terminate.
  47:Generated_Source\PSoC5/VFD_1_MuxDMA_dma.c **** * VFD_1_MuxDMA__TERMIN_SEL
  48:Generated_Source\PSoC5/VFD_1_MuxDMA_dma.c **** * 
  49:Generated_Source\PSoC5/VFD_1_MuxDMA_dma.c **** * 
  50:Generated_Source\PSoC5/VFD_1_MuxDMA_dma.c **** * True if VFD_1_MuxDMA_TERMOUT0_SEL is used.
  51:Generated_Source\PSoC5/VFD_1_MuxDMA_dma.c **** * VFD_1_MuxDMA__TERMOUT0_EN
  52:Generated_Source\PSoC5/VFD_1_MuxDMA_dma.c **** * 
  53:Generated_Source\PSoC5/VFD_1_MuxDMA_dma.c **** * 
  54:Generated_Source\PSoC5/VFD_1_MuxDMA_dma.c **** * TERMOUT0 interrupt line to signal completion.
  55:Generated_Source\PSoC5/VFD_1_MuxDMA_dma.c **** * VFD_1_MuxDMA__TERMOUT0_SEL
  56:Generated_Source\PSoC5/VFD_1_MuxDMA_dma.c **** * 
  57:Generated_Source\PSoC5/VFD_1_MuxDMA_dma.c **** * 
  58:Generated_Source\PSoC5/VFD_1_MuxDMA_dma.c **** * True if VFD_1_MuxDMA_TERMOUT1_SEL is used.
  59:Generated_Source\PSoC5/VFD_1_MuxDMA_dma.c **** * VFD_1_MuxDMA__TERMOUT1_EN
  60:Generated_Source\PSoC5/VFD_1_MuxDMA_dma.c **** * 
  61:Generated_Source\PSoC5/VFD_1_MuxDMA_dma.c **** * 
  62:Generated_Source\PSoC5/VFD_1_MuxDMA_dma.c **** * TERMOUT1 interrupt line to signal completion.
  63:Generated_Source\PSoC5/VFD_1_MuxDMA_dma.c **** * VFD_1_MuxDMA__TERMOUT1_SEL
  64:Generated_Source\PSoC5/VFD_1_MuxDMA_dma.c **** * 
  65:Generated_Source\PSoC5/VFD_1_MuxDMA_dma.c **** ****************************************************************************/
  66:Generated_Source\PSoC5/VFD_1_MuxDMA_dma.c **** 
  67:Generated_Source\PSoC5/VFD_1_MuxDMA_dma.c **** 
  68:Generated_Source\PSoC5/VFD_1_MuxDMA_dma.c **** /* Zero based index of VFD_1_MuxDMA dma channel */
  69:Generated_Source\PSoC5/VFD_1_MuxDMA_dma.c **** uint8 VFD_1_MuxDMA_DmaHandle = DMA_INVALID_CHANNEL;
  70:Generated_Source\PSoC5/VFD_1_MuxDMA_dma.c **** 
  71:Generated_Source\PSoC5/VFD_1_MuxDMA_dma.c **** /*********************************************************************
  72:Generated_Source\PSoC5/VFD_1_MuxDMA_dma.c **** * Function Name: uint8 VFD_1_MuxDMA_DmaInitalize
  73:Generated_Source\PSoC5/VFD_1_MuxDMA_dma.c **** **********************************************************************
  74:Generated_Source\PSoC5/VFD_1_MuxDMA_dma.c **** * Summary:
  75:Generated_Source\PSoC5/VFD_1_MuxDMA_dma.c **** *   Allocates and initialises a channel of the DMAC to be used by the
  76:Generated_Source\PSoC5/VFD_1_MuxDMA_dma.c **** *   caller.
  77:Generated_Source\PSoC5/VFD_1_MuxDMA_dma.c **** *
  78:Generated_Source\PSoC5/VFD_1_MuxDMA_dma.c **** * Parameters:
  79:Generated_Source\PSoC5/VFD_1_MuxDMA_dma.c **** *   BurstCount.
  80:Generated_Source\PSoC5/VFD_1_MuxDMA_dma.c **** *       
  81:Generated_Source\PSoC5/VFD_1_MuxDMA_dma.c **** *       
  82:Generated_Source\PSoC5/VFD_1_MuxDMA_dma.c **** *   ReqestPerBurst.
  83:Generated_Source\PSoC5/VFD_1_MuxDMA_dma.c **** *       
  84:Generated_Source\PSoC5/VFD_1_MuxDMA_dma.c **** *       
  85:Generated_Source\PSoC5/VFD_1_MuxDMA_dma.c **** *   UpperSrcAddress.
  86:Generated_Source\PSoC5/VFD_1_MuxDMA_dma.c **** *       
  87:Generated_Source\PSoC5/VFD_1_MuxDMA_dma.c **** *       
  88:Generated_Source\PSoC5/VFD_1_MuxDMA_dma.c **** *   UpperDestAddress.
ARM GAS  C:\Users\dph5ah\AppData\Local\Temp\ccmUiPmA.s 			page 3


  89:Generated_Source\PSoC5/VFD_1_MuxDMA_dma.c **** *       
  90:Generated_Source\PSoC5/VFD_1_MuxDMA_dma.c **** *
  91:Generated_Source\PSoC5/VFD_1_MuxDMA_dma.c **** * Return:
  92:Generated_Source\PSoC5/VFD_1_MuxDMA_dma.c **** *   The channel that can be used by the caller for DMA activity.
  93:Generated_Source\PSoC5/VFD_1_MuxDMA_dma.c **** *   DMA_INVALID_CHANNEL (0xFF) if there are no channels left. 
  94:Generated_Source\PSoC5/VFD_1_MuxDMA_dma.c **** *
  95:Generated_Source\PSoC5/VFD_1_MuxDMA_dma.c **** *
  96:Generated_Source\PSoC5/VFD_1_MuxDMA_dma.c **** *******************************************************************/
  97:Generated_Source\PSoC5/VFD_1_MuxDMA_dma.c **** uint8 VFD_1_MuxDMA_DmaInitialize(uint8 BurstCount, uint8 ReqestPerBurst, uint16 UpperSrcAddress, ui
  98:Generated_Source\PSoC5/VFD_1_MuxDMA_dma.c **** {
  27              		.loc 1 98 0
  28              		.cfi_startproc
  29              		@ args = 0, pretend = 0, frame = 0
  30              		@ frame_needed = 0, uses_anonymous_args = 0
  31              	.LVL0:
  32 0000 F0B5     		push	{r4, r5, r6, r7, lr}
  33              		.cfi_def_cfa_offset 20
  34              		.cfi_offset 4, -20
  35              		.cfi_offset 5, -16
  36              		.cfi_offset 6, -12
  37              		.cfi_offset 7, -8
  38              		.cfi_offset 14, -4
  39 0002 83B0     		sub	sp, sp, #12
  40              		.cfi_def_cfa_offset 32
  41 0004 8446     		mov	ip, r0
  42 0006 8E46     		mov	lr, r1
  43 0008 1746     		mov	r7, r2
  44 000a 1E46     		mov	r6, r3
  99:Generated_Source\PSoC5/VFD_1_MuxDMA_dma.c **** 
 100:Generated_Source\PSoC5/VFD_1_MuxDMA_dma.c ****     /* Allocate a DMA channel. */
 101:Generated_Source\PSoC5/VFD_1_MuxDMA_dma.c ****     VFD_1_MuxDMA_DmaHandle = (uint8)VFD_1_MuxDMA__DRQ_NUMBER;
  45              		.loc 1 101 0
  46 000c 0B4C     		ldr	r4, .L3
  47 000e 0225     		movs	r5, #2
  48 0010 2570     		strb	r5, [r4]
 102:Generated_Source\PSoC5/VFD_1_MuxDMA_dma.c **** 
 103:Generated_Source\PSoC5/VFD_1_MuxDMA_dma.c ****     /* Configure the channel. */
 104:Generated_Source\PSoC5/VFD_1_MuxDMA_dma.c ****     (void)CyDmaChSetConfiguration(VFD_1_MuxDMA_DmaHandle,
  49              		.loc 1 104 0
  50 0012 0023     		movs	r3, #0
  51              	.LVL1:
  52 0014 0093     		str	r3, [sp]
  53 0016 0193     		str	r3, [sp, #4]
  54 0018 2846     		mov	r0, r5
  55              	.LVL2:
  56 001a 6146     		mov	r1, ip
  57              	.LVL3:
  58 001c 7246     		mov	r2, lr
  59              	.LVL4:
  60 001e 2B46     		mov	r3, r5
  61 0020 FFF7FEFF 		bl	CyDmaChSetConfiguration
  62              	.LVL5:
 105:Generated_Source\PSoC5/VFD_1_MuxDMA_dma.c ****                                   BurstCount,
 106:Generated_Source\PSoC5/VFD_1_MuxDMA_dma.c ****                                   ReqestPerBurst,
 107:Generated_Source\PSoC5/VFD_1_MuxDMA_dma.c ****                                   (uint8)VFD_1_MuxDMA__TERMOUT0_SEL,
 108:Generated_Source\PSoC5/VFD_1_MuxDMA_dma.c ****                                   (uint8)VFD_1_MuxDMA__TERMOUT1_SEL,
 109:Generated_Source\PSoC5/VFD_1_MuxDMA_dma.c ****                                   (uint8)VFD_1_MuxDMA__TERMIN_SEL);
ARM GAS  C:\Users\dph5ah\AppData\Local\Temp\ccmUiPmA.s 			page 4


 110:Generated_Source\PSoC5/VFD_1_MuxDMA_dma.c **** 
 111:Generated_Source\PSoC5/VFD_1_MuxDMA_dma.c ****     /* Set the extended address for the transfers */
 112:Generated_Source\PSoC5/VFD_1_MuxDMA_dma.c ****     (void)CyDmaChSetExtendedAddress(VFD_1_MuxDMA_DmaHandle, UpperSrcAddress, UpperDestAddress);
  63              		.loc 1 112 0
  64 0024 2078     		ldrb	r0, [r4]	@ zero_extendqisi2
  65 0026 3946     		mov	r1, r7
  66 0028 3246     		mov	r2, r6
  67 002a FFF7FEFF 		bl	CyDmaChSetExtendedAddress
  68              	.LVL6:
 113:Generated_Source\PSoC5/VFD_1_MuxDMA_dma.c **** 
 114:Generated_Source\PSoC5/VFD_1_MuxDMA_dma.c ****     /* Set the priority for this channel */
 115:Generated_Source\PSoC5/VFD_1_MuxDMA_dma.c ****     (void)CyDmaChPriority(VFD_1_MuxDMA_DmaHandle, (uint8)VFD_1_MuxDMA__PRIORITY);
  69              		.loc 1 115 0
  70 002e 2078     		ldrb	r0, [r4]	@ zero_extendqisi2
  71 0030 2946     		mov	r1, r5
  72 0032 FFF7FEFF 		bl	CyDmaChPriority
  73              	.LVL7:
 116:Generated_Source\PSoC5/VFD_1_MuxDMA_dma.c ****     
 117:Generated_Source\PSoC5/VFD_1_MuxDMA_dma.c ****     return VFD_1_MuxDMA_DmaHandle;
 118:Generated_Source\PSoC5/VFD_1_MuxDMA_dma.c **** }
  74              		.loc 1 118 0
  75 0036 2078     		ldrb	r0, [r4]	@ zero_extendqisi2
  76 0038 03B0     		add	sp, sp, #12
  77              		.cfi_def_cfa_offset 20
  78              		@ sp needed
  79 003a F0BD     		pop	{r4, r5, r6, r7, pc}
  80              	.L4:
  81              		.align	2
  82              	.L3:
  83 003c 00000000 		.word	.LANCHOR0
  84              		.cfi_endproc
  85              	.LFE0:
  86              		.size	VFD_1_MuxDMA_DmaInitialize, .-VFD_1_MuxDMA_DmaInitialize
  87              		.section	.text.VFD_1_MuxDMA_DmaRelease,"ax",%progbits
  88              		.align	2
  89              		.global	VFD_1_MuxDMA_DmaRelease
  90              		.thumb
  91              		.thumb_func
  92              		.type	VFD_1_MuxDMA_DmaRelease, %function
  93              	VFD_1_MuxDMA_DmaRelease:
  94              	.LFB1:
 119:Generated_Source\PSoC5/VFD_1_MuxDMA_dma.c **** 
 120:Generated_Source\PSoC5/VFD_1_MuxDMA_dma.c **** /*********************************************************************
 121:Generated_Source\PSoC5/VFD_1_MuxDMA_dma.c **** * Function Name: void VFD_1_MuxDMA_DmaRelease
 122:Generated_Source\PSoC5/VFD_1_MuxDMA_dma.c **** **********************************************************************
 123:Generated_Source\PSoC5/VFD_1_MuxDMA_dma.c **** * Summary:
 124:Generated_Source\PSoC5/VFD_1_MuxDMA_dma.c **** *   Frees the channel associated with VFD_1_MuxDMA.
 125:Generated_Source\PSoC5/VFD_1_MuxDMA_dma.c **** *
 126:Generated_Source\PSoC5/VFD_1_MuxDMA_dma.c **** *
 127:Generated_Source\PSoC5/VFD_1_MuxDMA_dma.c **** * Parameters:
 128:Generated_Source\PSoC5/VFD_1_MuxDMA_dma.c **** *   void.
 129:Generated_Source\PSoC5/VFD_1_MuxDMA_dma.c **** *
 130:Generated_Source\PSoC5/VFD_1_MuxDMA_dma.c **** *
 131:Generated_Source\PSoC5/VFD_1_MuxDMA_dma.c **** *
 132:Generated_Source\PSoC5/VFD_1_MuxDMA_dma.c **** * Return:
 133:Generated_Source\PSoC5/VFD_1_MuxDMA_dma.c **** *   void.
 134:Generated_Source\PSoC5/VFD_1_MuxDMA_dma.c **** *
ARM GAS  C:\Users\dph5ah\AppData\Local\Temp\ccmUiPmA.s 			page 5


 135:Generated_Source\PSoC5/VFD_1_MuxDMA_dma.c **** *******************************************************************/
 136:Generated_Source\PSoC5/VFD_1_MuxDMA_dma.c **** void VFD_1_MuxDMA_DmaRelease(void) 
 137:Generated_Source\PSoC5/VFD_1_MuxDMA_dma.c **** {
  95              		.loc 1 137 0
  96              		.cfi_startproc
  97              		@ args = 0, pretend = 0, frame = 0
  98              		@ frame_needed = 0, uses_anonymous_args = 0
  99 0000 08B5     		push	{r3, lr}
 100              		.cfi_def_cfa_offset 8
 101              		.cfi_offset 3, -8
 102              		.cfi_offset 14, -4
 138:Generated_Source\PSoC5/VFD_1_MuxDMA_dma.c ****     /* Disable the channel */
 139:Generated_Source\PSoC5/VFD_1_MuxDMA_dma.c ****     (void)CyDmaChDisable(VFD_1_MuxDMA_DmaHandle);
 103              		.loc 1 139 0
 104 0002 024B     		ldr	r3, .L7
 105 0004 1878     		ldrb	r0, [r3]	@ zero_extendqisi2
 106 0006 FFF7FEFF 		bl	CyDmaChDisable
 107              	.LVL8:
 108 000a 08BD     		pop	{r3, pc}
 109              	.L8:
 110              		.align	2
 111              	.L7:
 112 000c 00000000 		.word	.LANCHOR0
 113              		.cfi_endproc
 114              	.LFE1:
 115              		.size	VFD_1_MuxDMA_DmaRelease, .-VFD_1_MuxDMA_DmaRelease
 116              		.global	VFD_1_MuxDMA_DmaHandle
 117              		.data
 118              		.set	.LANCHOR0,. + 0
 119              		.type	VFD_1_MuxDMA_DmaHandle, %object
 120              		.size	VFD_1_MuxDMA_DmaHandle, 1
 121              	VFD_1_MuxDMA_DmaHandle:
 122 0000 FF       		.byte	-1
 123              		.text
 124              	.Letext0:
 125              		.file 2 "Generated_Source\\PSoC5/cytypes.h"
 126              		.file 3 "Generated_Source\\PSoC5/CYDMAC.H"