ARM GAS  C:\Users\dph5ah\AppData\Local\Temp\ccrP8Bjg.s 			page 1


   1              		.syntax unified
   2              		.cpu cortex-m3
   3              		.fpu softvfp
   4              		.eabi_attribute 20, 1
   5              		.eabi_attribute 21, 1
   6              		.eabi_attribute 23, 3
   7              		.eabi_attribute 24, 1
   8              		.eabi_attribute 25, 1
   9              		.eabi_attribute 26, 1
  10              		.eabi_attribute 30, 1
  11              		.eabi_attribute 34, 1
  12              		.eabi_attribute 18, 4
  13              		.thumb
  14              		.file	"VFD_1.c"
  15              		.text
  16              	.Ltext0:
  17              		.cfi_sections	.debug_frame
  18              		.section	.text.VFD_1_AMuxDmaInit,"ax",%progbits
  19              		.align	2
  20              		.thumb
  21              		.thumb_func
  22              		.type	VFD_1_AMuxDmaInit, %function
  23              	VFD_1_AMuxDmaInit:
  24              	.LFB7:
  25              		.file 1 "Generated_Source\\PSoC5\\VFD_1.c"
   1:Generated_Source\PSoC5/VFD_1.c **** /*******************************************************************************
   2:Generated_Source\PSoC5/VFD_1.c **** * File Name: VFD_1.c
   3:Generated_Source\PSoC5/VFD_1.c **** * Version 3.0
   4:Generated_Source\PSoC5/VFD_1.c **** *
   5:Generated_Source\PSoC5/VFD_1.c **** * Description:
   6:Generated_Source\PSoC5/VFD_1.c **** *  Contains the function prototypes, constants and register definition
   7:Generated_Source\PSoC5/VFD_1.c **** *  of the Voltage Fault Detector Component.
   8:Generated_Source\PSoC5/VFD_1.c **** *
   9:Generated_Source\PSoC5/VFD_1.c **** *
  10:Generated_Source\PSoC5/VFD_1.c **** ********************************************************************************
  11:Generated_Source\PSoC5/VFD_1.c **** * Copyright 2012-2015, Cypress Semiconductor Corporation.  All rights reserved.
  12:Generated_Source\PSoC5/VFD_1.c **** * You may use this file only in accordance with the license, terms, conditions, 
  13:Generated_Source\PSoC5/VFD_1.c **** * disclaimers, and limitations in the end user license agreement accompanying 
  14:Generated_Source\PSoC5/VFD_1.c **** * the software package with which this file was provided.
  15:Generated_Source\PSoC5/VFD_1.c **** *******************************************************************************/
  16:Generated_Source\PSoC5/VFD_1.c **** 
  17:Generated_Source\PSoC5/VFD_1.c **** #include "VFD_1.h"
  18:Generated_Source\PSoC5/VFD_1.c **** #include "VFD_1_MuxDMA_dma.h"
  19:Generated_Source\PSoC5/VFD_1.c **** #include "VFD_1_FiltRdDMA_dma.h"
  20:Generated_Source\PSoC5/VFD_1.c **** #include "VFD_1_FiltWrDMA_dma.h"
  21:Generated_Source\PSoC5/VFD_1.c **** 
  22:Generated_Source\PSoC5/VFD_1.c **** #if (VFD_1_ENABLE_OV_DETECT)
  23:Generated_Source\PSoC5/VFD_1.c **** #include "VFD_1_OV.h"
  24:Generated_Source\PSoC5/VFD_1.c **** #endif /* VFD_1_ENABLE_OV_DETECT */
  25:Generated_Source\PSoC5/VFD_1.c **** #if (VFD_1_ENABLE_UV_DETECT)
  26:Generated_Source\PSoC5/VFD_1.c **** #include "VFD_1_UV.h"
  27:Generated_Source\PSoC5/VFD_1.c **** #endif /* VFD_1_ENABLE_UV_DETECT */
  28:Generated_Source\PSoC5/VFD_1.c **** 
  29:Generated_Source\PSoC5/VFD_1.c **** 
  30:Generated_Source\PSoC5/VFD_1.c **** /***************************************
  31:Generated_Source\PSoC5/VFD_1.c **** *   Internal definitions
  32:Generated_Source\PSoC5/VFD_1.c **** ***************************************/
ARM GAS  C:\Users\dph5ah\AppData\Local\Temp\ccrP8Bjg.s 			page 2


  33:Generated_Source\PSoC5/VFD_1.c **** 
  34:Generated_Source\PSoC5/VFD_1.c **** #define AMUX_DMA_DATA_SIZE      1u
  35:Generated_Source\PSoC5/VFD_1.c **** #define AMUX_DMA_DATA_NR        1u
  36:Generated_Source\PSoC5/VFD_1.c **** 
  37:Generated_Source\PSoC5/VFD_1.c **** /* Glitch filter DMA data element size depends on the Compare type parameter.
  38:Generated_Source\PSoC5/VFD_1.c **** * When the parameter is set to UV, the filtering is only applied to PGOOD.
  39:Generated_Source\PSoC5/VFD_1.c **** * Thus the data element size is 1 byte.
  40:Generated_Source\PSoC5/VFD_1.c **** * When OV is enabled, a fault type is also distinguished. This requires
  41:Generated_Source\PSoC5/VFD_1.c **** * a filtering to be additionally applied to OV fault condition. Both filters
  42:Generated_Source\PSoC5/VFD_1.c **** * are combined to use 16-bit interface for DMA access. 
  43:Generated_Source\PSoC5/VFD_1.c **** */
  44:Generated_Source\PSoC5/VFD_1.c **** #define FILT_DMA_DATA_SIZE      (VFD_1_ENABLE_OV_DETECT ? 2u : 1u)
  45:Generated_Source\PSoC5/VFD_1.c **** 
  46:Generated_Source\PSoC5/VFD_1.c **** /* Compiler endiannes compatibility defines */
  47:Generated_Source\PSoC5/VFD_1.c **** #if (CY_PSOC3)
  48:Generated_Source\PSoC5/VFD_1.c ****     #define STS_B1      3
  49:Generated_Source\PSoC5/VFD_1.c ****     #define STS_B2      2
  50:Generated_Source\PSoC5/VFD_1.c ****     #define STS_B3      1
  51:Generated_Source\PSoC5/VFD_1.c ****     #define STS_B4      0
  52:Generated_Source\PSoC5/VFD_1.c **** #else
  53:Generated_Source\PSoC5/VFD_1.c ****     #define STS_B1      0
  54:Generated_Source\PSoC5/VFD_1.c ****     #define STS_B2      1
  55:Generated_Source\PSoC5/VFD_1.c ****     #define STS_B3      2
  56:Generated_Source\PSoC5/VFD_1.c ****     #define STS_B4      3
  57:Generated_Source\PSoC5/VFD_1.c **** #endif
  58:Generated_Source\PSoC5/VFD_1.c **** 
  59:Generated_Source\PSoC5/VFD_1.c **** #define NUM_STS_BYTES   4
  60:Generated_Source\PSoC5/VFD_1.c **** 
  61:Generated_Source\PSoC5/VFD_1.c **** 
  62:Generated_Source\PSoC5/VFD_1.c **** /***************************************
  63:Generated_Source\PSoC5/VFD_1.c **** *   Internal type definitions
  64:Generated_Source\PSoC5/VFD_1.c **** ***************************************/
  65:Generated_Source\PSoC5/VFD_1.c **** 
  66:Generated_Source\PSoC5/VFD_1.c **** typedef union
  67:Generated_Source\PSoC5/VFD_1.c **** {
  68:Generated_Source\PSoC5/VFD_1.c **** 	uint32	word;
  69:Generated_Source\PSoC5/VFD_1.c **** 	uint8	bytes[NUM_STS_BYTES];
  70:Generated_Source\PSoC5/VFD_1.c **** } FAULT_STS;
  71:Generated_Source\PSoC5/VFD_1.c **** 
  72:Generated_Source\PSoC5/VFD_1.c **** 
  73:Generated_Source\PSoC5/VFD_1.c **** /***************************************
  74:Generated_Source\PSoC5/VFD_1.c **** *   Internal component variables
  75:Generated_Source\PSoC5/VFD_1.c **** ***************************************/
  76:Generated_Source\PSoC5/VFD_1.c **** 
  77:Generated_Source\PSoC5/VFD_1.c **** static  uint8   amuxDmaCh;
  78:Generated_Source\PSoC5/VFD_1.c **** static  uint8   amuxDmaTd;
  79:Generated_Source\PSoC5/VFD_1.c **** 
  80:Generated_Source\PSoC5/VFD_1.c **** static  uint8   filtRdDmaCh;
  81:Generated_Source\PSoC5/VFD_1.c **** static  uint8   filtWrDmaCh;
  82:Generated_Source\PSoC5/VFD_1.c **** static  uint16  filtCount[VFD_1_NUMBER_OF_VOLTAGES];
  83:Generated_Source\PSoC5/VFD_1.c **** 
  84:Generated_Source\PSoC5/VFD_1.c **** 
  85:Generated_Source\PSoC5/VFD_1.c **** /***************************************
  86:Generated_Source\PSoC5/VFD_1.c **** *    Internal component functions
  87:Generated_Source\PSoC5/VFD_1.c **** ***************************************/
  88:Generated_Source\PSoC5/VFD_1.c **** 
  89:Generated_Source\PSoC5/VFD_1.c **** static void VFD_1_AMuxDmaInit(void) ;
ARM GAS  C:\Users\dph5ah\AppData\Local\Temp\ccrP8Bjg.s 			page 3


  90:Generated_Source\PSoC5/VFD_1.c **** static void VFD_1_GlitchFilterDmaInit(void) ;
  91:Generated_Source\PSoC5/VFD_1.c **** 
  92:Generated_Source\PSoC5/VFD_1.c **** 
  93:Generated_Source\PSoC5/VFD_1.c **** /***************************************
  94:Generated_Source\PSoC5/VFD_1.c **** *   External variables
  95:Generated_Source\PSoC5/VFD_1.c **** ***************************************/
  96:Generated_Source\PSoC5/VFD_1.c **** 
  97:Generated_Source\PSoC5/VFD_1.c **** uint8 VFD_1_initVar = 0u;
  98:Generated_Source\PSoC5/VFD_1.c **** const uint16 CYCODE VFD_1_VoltageScale[] = {
  99:Generated_Source\PSoC5/VFD_1.c ****     1000u
 100:Generated_Source\PSoC5/VFD_1.c **** };
 101:Generated_Source\PSoC5/VFD_1.c **** 
 102:Generated_Source\PSoC5/VFD_1.c **** 
 103:Generated_Source\PSoC5/VFD_1.c **** /*******************************************************************************
 104:Generated_Source\PSoC5/VFD_1.c **** * Function Name: VFD_1_Init
 105:Generated_Source\PSoC5/VFD_1.c **** ********************************************************************************
 106:Generated_Source\PSoC5/VFD_1.c **** *
 107:Generated_Source\PSoC5/VFD_1.c **** * Summary:
 108:Generated_Source\PSoC5/VFD_1.c **** *  Initializes or restores the default VFD configuration provided with the
 109:Generated_Source\PSoC5/VFD_1.c **** *  customizer. Initializes internal DMA channels. It is not necessary to call
 110:Generated_Source\PSoC5/VFD_1.c **** *  VFD_Init() because the VFD_Start() routine calls this function, which is the
 111:Generated_Source\PSoC5/VFD_1.c **** *  preferred method to begin the component operation.
 112:Generated_Source\PSoC5/VFD_1.c **** *
 113:Generated_Source\PSoC5/VFD_1.c **** * Parameters:
 114:Generated_Source\PSoC5/VFD_1.c **** *  None.
 115:Generated_Source\PSoC5/VFD_1.c **** *
 116:Generated_Source\PSoC5/VFD_1.c **** * Return:
 117:Generated_Source\PSoC5/VFD_1.c **** *  None.
 118:Generated_Source\PSoC5/VFD_1.c **** *
 119:Generated_Source\PSoC5/VFD_1.c **** * Side Effects:
 120:Generated_Source\PSoC5/VFD_1.c **** *  Disables all interrupts for the moment the counter enabling bits are set.
 121:Generated_Source\PSoC5/VFD_1.c **** *  Configures DMA transfer the first time this function is called. Does not
 122:Generated_Source\PSoC5/VFD_1.c **** *  reinitialize DMA on subsequent calls.
 123:Generated_Source\PSoC5/VFD_1.c **** *  Use VFD_1_Stop() to reset DMA to the initial state.
 124:Generated_Source\PSoC5/VFD_1.c **** *
 125:Generated_Source\PSoC5/VFD_1.c **** * Reentrant:
 126:Generated_Source\PSoC5/VFD_1.c **** *  No.
 127:Generated_Source\PSoC5/VFD_1.c **** *
 128:Generated_Source\PSoC5/VFD_1.c **** *******************************************************************************/
 129:Generated_Source\PSoC5/VFD_1.c **** void VFD_1_Init(void) 
 130:Generated_Source\PSoC5/VFD_1.c **** {
 131:Generated_Source\PSoC5/VFD_1.c ****     uint8 interruptState;
 132:Generated_Source\PSoC5/VFD_1.c ****     static uint8 dmaInitDone = 0u;
 133:Generated_Source\PSoC5/VFD_1.c **** 
 134:Generated_Source\PSoC5/VFD_1.c ****     /* DMA initialization is done the first time VFD_1_Init() is
 135:Generated_Source\PSoC5/VFD_1.c ****     * called. Otherwise it will consume all available TD resources. */
 136:Generated_Source\PSoC5/VFD_1.c ****     if(dmaInitDone == 0u)
 137:Generated_Source\PSoC5/VFD_1.c ****     {
 138:Generated_Source\PSoC5/VFD_1.c ****         VFD_1_AMuxDmaInit();
 139:Generated_Source\PSoC5/VFD_1.c ****         VFD_1_GlitchFilterDmaInit();
 140:Generated_Source\PSoC5/VFD_1.c ****         dmaInitDone = 1u;
 141:Generated_Source\PSoC5/VFD_1.c ****     }
 142:Generated_Source\PSoC5/VFD_1.c **** 
 143:Generated_Source\PSoC5/VFD_1.c ****     #if (VFD_1_ENABLE_OV_DETECT)
 144:Generated_Source\PSoC5/VFD_1.c ****         VFD_1_OVInit();
 145:Generated_Source\PSoC5/VFD_1.c ****     #endif /* VFD_1_ENABLE_OV_DETECT */
 146:Generated_Source\PSoC5/VFD_1.c **** 
ARM GAS  C:\Users\dph5ah\AppData\Local\Temp\ccrP8Bjg.s 			page 4


 147:Generated_Source\PSoC5/VFD_1.c ****     #if (VFD_1_ENABLE_UV_DETECT)
 148:Generated_Source\PSoC5/VFD_1.c ****         VFD_1_UVInit();
 149:Generated_Source\PSoC5/VFD_1.c ****     #endif /* VFD_1_ENABLE_UV_DETECT */
 150:Generated_Source\PSoC5/VFD_1.c **** 
 151:Generated_Source\PSoC5/VFD_1.c ****     /* Counters are hardware controlled. Set firmware enable bits at init stage */
 152:Generated_Source\PSoC5/VFD_1.c ****     interruptState = CyEnterCriticalSection();
 153:Generated_Source\PSoC5/VFD_1.c ****     #if (VFD_1_VIN_SETTLING_DELAY > VFD_1_VIN_SETTLING_DELAY_MIN)
 154:Generated_Source\PSoC5/VFD_1.c ****         VFD_1_VIN_DELAY_CNT_ACTL_REG |= VFD_1_CNT_START;
 155:Generated_Source\PSoC5/VFD_1.c ****     #endif /* VFD_1_VIN_SETTLING_DELAY > VFD_1_VIN_SETTLING_DELAY_MIN */
 156:Generated_Source\PSoC5/VFD_1.c ****     VFD_1_VIN_INDEX_CNT_ACTL_REG |= VFD_1_CNT_START;
 157:Generated_Source\PSoC5/VFD_1.c ****     CyExitCriticalSection(interruptState);
 158:Generated_Source\PSoC5/VFD_1.c **** }
 159:Generated_Source\PSoC5/VFD_1.c **** 
 160:Generated_Source\PSoC5/VFD_1.c **** 
 161:Generated_Source\PSoC5/VFD_1.c **** /*******************************************************************************
 162:Generated_Source\PSoC5/VFD_1.c **** * Function Name: VFD_1_Enable
 163:Generated_Source\PSoC5/VFD_1.c **** ********************************************************************************
 164:Generated_Source\PSoC5/VFD_1.c **** *
 165:Generated_Source\PSoC5/VFD_1.c **** * Summary:
 166:Generated_Source\PSoC5/VFD_1.c **** *  Enables hardware blocks, the DMA channels and the control state machine.
 167:Generated_Source\PSoC5/VFD_1.c **** *  It is not necessary to call VFD_1_Init() because the VFD_1_Start()
 168:Generated_Source\PSoC5/VFD_1.c **** *  routine calls this function, which is the preferred method to begin the component
 169:Generated_Source\PSoC5/VFD_1.c **** *  operation.
 170:Generated_Source\PSoC5/VFD_1.c **** *
 171:Generated_Source\PSoC5/VFD_1.c **** * Parameters:
 172:Generated_Source\PSoC5/VFD_1.c **** *  None.
 173:Generated_Source\PSoC5/VFD_1.c **** *
 174:Generated_Source\PSoC5/VFD_1.c **** * Return:
 175:Generated_Source\PSoC5/VFD_1.c **** *  None.
 176:Generated_Source\PSoC5/VFD_1.c **** *
 177:Generated_Source\PSoC5/VFD_1.c **** * Side Effects:
 178:Generated_Source\PSoC5/VFD_1.c **** *  Sets/restores the initial TD for the AMux DMA channel, resets glitch filter
 179:Generated_Source\PSoC5/VFD_1.c **** *  counters and the current voltage index. This function should not be called
 180:Generated_Source\PSoC5/VFD_1.c **** *  when the component is started.
 181:Generated_Source\PSoC5/VFD_1.c **** *
 182:Generated_Source\PSoC5/VFD_1.c **** * Reentrant:
 183:Generated_Source\PSoC5/VFD_1.c **** *  No.
 184:Generated_Source\PSoC5/VFD_1.c **** *
 185:Generated_Source\PSoC5/VFD_1.c **** *******************************************************************************/
 186:Generated_Source\PSoC5/VFD_1.c **** void VFD_1_Enable(void) 
 187:Generated_Source\PSoC5/VFD_1.c **** {
 188:Generated_Source\PSoC5/VFD_1.c ****     /* AMux control uses TD chain. Set initial TD in chain. */
 189:Generated_Source\PSoC5/VFD_1.c ****     (void)CyDmaChSetInitialTd(amuxDmaCh, amuxDmaTd);
 190:Generated_Source\PSoC5/VFD_1.c ****     (void)CyDmaChEnable(amuxDmaCh, 1u);
 191:Generated_Source\PSoC5/VFD_1.c ****     (void)CyDmaChEnable(filtRdDmaCh, 1u);
 192:Generated_Source\PSoC5/VFD_1.c ****     (void)CyDmaChEnable(filtWrDmaCh, 1u);
 193:Generated_Source\PSoC5/VFD_1.c ****        
 194:Generated_Source\PSoC5/VFD_1.c ****     #if (VFD_1_ENABLE_OV_DETECT)
 195:Generated_Source\PSoC5/VFD_1.c ****         VFD_1_OVEnable();
 196:Generated_Source\PSoC5/VFD_1.c ****     #endif /* VFD_1_ENABLE_OV_DETECT */
 197:Generated_Source\PSoC5/VFD_1.c **** 
 198:Generated_Source\PSoC5/VFD_1.c ****     #if (VFD_1_ENABLE_UV_DETECT)
 199:Generated_Source\PSoC5/VFD_1.c ****         VFD_1_UVEnable();
 200:Generated_Source\PSoC5/VFD_1.c ****     #endif /* VFD_1_ENABLE_UV_DETECT */
 201:Generated_Source\PSoC5/VFD_1.c **** 
 202:Generated_Source\PSoC5/VFD_1.c ****     /* Reset glitch filter counters */
 203:Generated_Source\PSoC5/VFD_1.c ****     (void)memset((void *)filtCount, 0, sizeof(filtCount));
ARM GAS  C:\Users\dph5ah\AppData\Local\Temp\ccrP8Bjg.s 			page 5


 204:Generated_Source\PSoC5/VFD_1.c **** 
 205:Generated_Source\PSoC5/VFD_1.c ****     /* Reset voltage index  */
 206:Generated_Source\PSoC5/VFD_1.c ****     VFD_1_VIN_INDEX_CNT_COUNT_REG = VFD_1_NUMBER_OF_VOLTAGES - 1u;
 207:Generated_Source\PSoC5/VFD_1.c **** 
 208:Generated_Source\PSoC5/VFD_1.c ****     /* Enable the control state machine */
 209:Generated_Source\PSoC5/VFD_1.c ****     VFD_1_CONTROL_REG = VFD_1_EN;
 210:Generated_Source\PSoC5/VFD_1.c **** }
 211:Generated_Source\PSoC5/VFD_1.c **** 
 212:Generated_Source\PSoC5/VFD_1.c **** 
 213:Generated_Source\PSoC5/VFD_1.c **** /*******************************************************************************
 214:Generated_Source\PSoC5/VFD_1.c **** * Function Name: VFD_1_Start
 215:Generated_Source\PSoC5/VFD_1.c **** ********************************************************************************
 216:Generated_Source\PSoC5/VFD_1.c **** *
 217:Generated_Source\PSoC5/VFD_1.c **** * Summary:
 218:Generated_Source\PSoC5/VFD_1.c **** *  Calls the Init() API if the component has not been initialized before.
 219:Generated_Source\PSoC5/VFD_1.c **** *  Runs a calibration routine for comparators and then calls Enable() to
 220:Generated_Source\PSoC5/VFD_1.c **** *  begin the component operation.
 221:Generated_Source\PSoC5/VFD_1.c **** *
 222:Generated_Source\PSoC5/VFD_1.c **** * Parameters:
 223:Generated_Source\PSoC5/VFD_1.c **** *  None.
 224:Generated_Source\PSoC5/VFD_1.c **** *
 225:Generated_Source\PSoC5/VFD_1.c **** * Return:
 226:Generated_Source\PSoC5/VFD_1.c **** *  None.
 227:Generated_Source\PSoC5/VFD_1.c **** *
 228:Generated_Source\PSoC5/VFD_1.c **** * Global variables:
 229:Generated_Source\PSoC5/VFD_1.c **** *  VFD_1_initVar - Used to check the initial configuration, modified
 230:Generated_Source\PSoC5/VFD_1.c **** *  on a first function call.
 231:Generated_Source\PSoC5/VFD_1.c **** *
 232:Generated_Source\PSoC5/VFD_1.c **** * Reentrant:
 233:Generated_Source\PSoC5/VFD_1.c **** *  No.
 234:Generated_Source\PSoC5/VFD_1.c **** *
 235:Generated_Source\PSoC5/VFD_1.c **** *******************************************************************************/
 236:Generated_Source\PSoC5/VFD_1.c **** void VFD_1_Start(void) 
 237:Generated_Source\PSoC5/VFD_1.c **** {
 238:Generated_Source\PSoC5/VFD_1.c ****     if(VFD_1_initVar == 0u)
 239:Generated_Source\PSoC5/VFD_1.c ****     {
 240:Generated_Source\PSoC5/VFD_1.c ****         VFD_1_Init();
 241:Generated_Source\PSoC5/VFD_1.c ****         VFD_1_initVar = 1u;
 242:Generated_Source\PSoC5/VFD_1.c ****     }
 243:Generated_Source\PSoC5/VFD_1.c **** 
 244:Generated_Source\PSoC5/VFD_1.c ****     VFD_1_ComparatorCal(VFD_1_OV);
 245:Generated_Source\PSoC5/VFD_1.c ****     VFD_1_ComparatorCal(VFD_1_UV);
 246:Generated_Source\PSoC5/VFD_1.c ****     VFD_1_Enable();
 247:Generated_Source\PSoC5/VFD_1.c **** }
 248:Generated_Source\PSoC5/VFD_1.c **** 
 249:Generated_Source\PSoC5/VFD_1.c **** 
 250:Generated_Source\PSoC5/VFD_1.c **** /*******************************************************************************
 251:Generated_Source\PSoC5/VFD_1.c **** * Function Name: VFD_1_Stop
 252:Generated_Source\PSoC5/VFD_1.c **** ********************************************************************************
 253:Generated_Source\PSoC5/VFD_1.c **** *
 254:Generated_Source\PSoC5/VFD_1.c **** * Summary:
 255:Generated_Source\PSoC5/VFD_1.c **** *  Disables the VFD component. Stops DMA controller and resets TDs. Disconnects
 256:Generated_Source\PSoC5/VFD_1.c **** *  AMux channels.
 257:Generated_Source\PSoC5/VFD_1.c **** *
 258:Generated_Source\PSoC5/VFD_1.c **** * Parameters:
 259:Generated_Source\PSoC5/VFD_1.c **** *  None.
 260:Generated_Source\PSoC5/VFD_1.c **** *
ARM GAS  C:\Users\dph5ah\AppData\Local\Temp\ccrP8Bjg.s 			page 6


 261:Generated_Source\PSoC5/VFD_1.c **** * Return:
 262:Generated_Source\PSoC5/VFD_1.c **** *  None.
 263:Generated_Source\PSoC5/VFD_1.c **** *
 264:Generated_Source\PSoC5/VFD_1.c **** * Side Effects:
 265:Generated_Source\PSoC5/VFD_1.c **** *  pgood and pgood[x] outputs are de-asserted.
 266:Generated_Source\PSoC5/VFD_1.c **** *
 267:Generated_Source\PSoC5/VFD_1.c **** * Reentrant:
 268:Generated_Source\PSoC5/VFD_1.c **** *  No.
 269:Generated_Source\PSoC5/VFD_1.c **** *
 270:Generated_Source\PSoC5/VFD_1.c **** *******************************************************************************/
 271:Generated_Source\PSoC5/VFD_1.c **** void VFD_1_Stop(void) 
 272:Generated_Source\PSoC5/VFD_1.c **** {
 273:Generated_Source\PSoC5/VFD_1.c ****     uint8 indx;
 274:Generated_Source\PSoC5/VFD_1.c ****     uint8 interruptState;
 275:Generated_Source\PSoC5/VFD_1.c **** 
 276:Generated_Source\PSoC5/VFD_1.c ****     /* Disable control state machine */
 277:Generated_Source\PSoC5/VFD_1.c ****     VFD_1_CONTROL_REG = 0u;
 278:Generated_Source\PSoC5/VFD_1.c ****     
 279:Generated_Source\PSoC5/VFD_1.c ****     /* Terminate all transfers and disable DMA channels */
 280:Generated_Source\PSoC5/VFD_1.c ****     (void)CyDmaChSetRequest(amuxDmaCh, CY_DMA_CPU_TERM_CHAIN);
 281:Generated_Source\PSoC5/VFD_1.c ****     (void)CyDmaChSetRequest(filtRdDmaCh, CY_DMA_CPU_TERM_CHAIN);
 282:Generated_Source\PSoC5/VFD_1.c ****     (void)CyDmaChSetRequest(filtWrDmaCh, CY_DMA_CPU_TERM_CHAIN);
 283:Generated_Source\PSoC5/VFD_1.c ****         
 284:Generated_Source\PSoC5/VFD_1.c ****     /* Clear potential DRQs that may occur during termination period */    
 285:Generated_Source\PSoC5/VFD_1.c ****     (void)CyDmaClearPendingDrq(amuxDmaCh);
 286:Generated_Source\PSoC5/VFD_1.c ****     (void)CyDmaClearPendingDrq(filtRdDmaCh);
 287:Generated_Source\PSoC5/VFD_1.c ****     (void)CyDmaClearPendingDrq(filtWrDmaCh);
 288:Generated_Source\PSoC5/VFD_1.c **** 
 289:Generated_Source\PSoC5/VFD_1.c ****     #if (VFD_1_ENABLE_OV_DETECT)
 290:Generated_Source\PSoC5/VFD_1.c ****         VFD_1_OVStop();
 291:Generated_Source\PSoC5/VFD_1.c ****     #endif /* VFD_1_ENABLE_OV_DETECT */
 292:Generated_Source\PSoC5/VFD_1.c **** 
 293:Generated_Source\PSoC5/VFD_1.c ****     #if (VFD_1_ENABLE_UV_DETECT)
 294:Generated_Source\PSoC5/VFD_1.c ****         VFD_1_UVStop();
 295:Generated_Source\PSoC5/VFD_1.c ****     #endif /* VFD_1_ENABLE_UV_DETECT */
 296:Generated_Source\PSoC5/VFD_1.c **** 
 297:Generated_Source\PSoC5/VFD_1.c ****     /* Disconnect AMux channels */
 298:Generated_Source\PSoC5/VFD_1.c ****     for(indx = 0u; indx < VFD_1_NUMBER_OF_VOLTAGES; ++indx)
 299:Generated_Source\PSoC5/VFD_1.c ****     {
 300:Generated_Source\PSoC5/VFD_1.c ****         *VFD_1_AMux__addrTable[indx] = 0u;
 301:Generated_Source\PSoC5/VFD_1.c ****     }
 302:Generated_Source\PSoC5/VFD_1.c ****     /* Reset glitch filter FIFOs */
 303:Generated_Source\PSoC5/VFD_1.c ****     interruptState = CyEnterCriticalSection();
 304:Generated_Source\PSoC5/VFD_1.c ****     VFD_1_PG_FILTER_FIFO_ACTL_REG |= VFD_1_FIFO_CLR;
 305:Generated_Source\PSoC5/VFD_1.c ****     VFD_1_PG_FILTER_FIFO_ACTL_REG &= (uint8)~VFD_1_FIFO_CLR;
 306:Generated_Source\PSoC5/VFD_1.c ****     #if (VFD_1_ENABLE_OV_DETECT)
 307:Generated_Source\PSoC5/VFD_1.c ****         VFD_1_OV_FILTER_FIFO_ACTL_REG |= VFD_1_FIFO_CLR;
 308:Generated_Source\PSoC5/VFD_1.c ****         VFD_1_OV_FILTER_FIFO_ACTL_REG &= (uint8)~VFD_1_FIFO_CLR;
 309:Generated_Source\PSoC5/VFD_1.c ****     #endif /* VFD_1_ENABLE_OV_DETECT */
 310:Generated_Source\PSoC5/VFD_1.c ****     CyExitCriticalSection(interruptState);
 311:Generated_Source\PSoC5/VFD_1.c **** }
 312:Generated_Source\PSoC5/VFD_1.c **** 
 313:Generated_Source\PSoC5/VFD_1.c **** 
 314:Generated_Source\PSoC5/VFD_1.c **** /*******************************************************************************
 315:Generated_Source\PSoC5/VFD_1.c **** * Function Name: VFD_1_GetOVUVFaultStatus
 316:Generated_Source\PSoC5/VFD_1.c **** ********************************************************************************
 317:Generated_Source\PSoC5/VFD_1.c **** *
ARM GAS  C:\Users\dph5ah\AppData\Local\Temp\ccrP8Bjg.s 			page 7


 318:Generated_Source\PSoC5/VFD_1.c **** * Summary:
 319:Generated_Source\PSoC5/VFD_1.c **** *  Assigns an over/under voltage fault status of each voltage input to its
 320:Generated_Source\PSoC5/VFD_1.c **** *  parameters. Bits are sticky and cleared by calling this API. Applicable only
 321:Generated_Source\PSoC5/VFD_1.c **** *  if Compare Type is set to "OV/UV".
 322:Generated_Source\PSoC5/VFD_1.c **** *
 323:Generated_Source\PSoC5/VFD_1.c **** * Parameters:
 324:Generated_Source\PSoC5/VFD_1.c **** *  ovStatus: OV status for all voltages.
 325:Generated_Source\PSoC5/VFD_1.c **** *  uvStatus: UV status for all voltages.
 326:Generated_Source\PSoC5/VFD_1.c **** *
 327:Generated_Source\PSoC5/VFD_1.c **** * Return:
 328:Generated_Source\PSoC5/VFD_1.c **** *  None.
 329:Generated_Source\PSoC5/VFD_1.c **** *
 330:Generated_Source\PSoC5/VFD_1.c **** * Side Effects:
 331:Generated_Source\PSoC5/VFD_1.c **** *  Calling this API clears the fault condition source sticky bits. If the
 332:Generated_Source\PSoC5/VFD_1.c **** *  condition still persists, then the bit will be set again after the next scan.
 333:Generated_Source\PSoC5/VFD_1.c **** *
 334:Generated_Source\PSoC5/VFD_1.c **** * Reentrant:
 335:Generated_Source\PSoC5/VFD_1.c **** *  No.
 336:Generated_Source\PSoC5/VFD_1.c **** *
 337:Generated_Source\PSoC5/VFD_1.c **** *******************************************************************************/
 338:Generated_Source\PSoC5/VFD_1.c **** #if (VFD_1_COMP_TYPE == VFD_1_OV_UV)
 339:Generated_Source\PSoC5/VFD_1.c **** void VFD_1_GetOVUVFaultStatus(uint32 * ovStatus, uint32 * uvStatus) 
 340:Generated_Source\PSoC5/VFD_1.c **** {
 341:Generated_Source\PSoC5/VFD_1.c ****     FAULT_STS ovLocal;
 342:Generated_Source\PSoC5/VFD_1.c ****     FAULT_STS uvLocal;
 343:Generated_Source\PSoC5/VFD_1.c **** 
 344:Generated_Source\PSoC5/VFD_1.c ****     #ifdef __CC_ARM
 345:Generated_Source\PSoC5/VFD_1.c ****         /* ARMCC compiler issues C4017W warnings about the use of uninitialized
 346:Generated_Source\PSoC5/VFD_1.c ****         * variables. The compiler cannot reliably identify faulty code and any
 347:Generated_Source\PSoC5/VFD_1.c ****         * C4017W warnings are intended only as an indication of possible problems.
 348:Generated_Source\PSoC5/VFD_1.c ****         */
 349:Generated_Source\PSoC5/VFD_1.c ****         ovLocal.word = 0u;
 350:Generated_Source\PSoC5/VFD_1.c ****         uvLocal.word = 0u;
 351:Generated_Source\PSoC5/VFD_1.c ****     #endif /* __CC_ARM */
 352:Generated_Source\PSoC5/VFD_1.c **** 
 353:Generated_Source\PSoC5/VFD_1.c ****     #ifdef VFD_1_PG_STS8_STATUS_REG
 354:Generated_Source\PSoC5/VFD_1.c ****         ovLocal.bytes[STS_B1] = VFD_1_OV_STS8_STATUS_REG;
 355:Generated_Source\PSoC5/VFD_1.c ****         uvLocal.bytes[STS_B1] = (uint8)~(VFD_1_PG_STS8_STATUS_REG | ovLocal.bytes[STS_B1]);
 356:Generated_Source\PSoC5/VFD_1.c ****     #endif /* VFD_1_PG_STS8_STATUS_REG */
 357:Generated_Source\PSoC5/VFD_1.c ****     #ifdef VFD_1_PG_STS16_STATUS_REG
 358:Generated_Source\PSoC5/VFD_1.c ****         ovLocal.bytes[STS_B2] = VFD_1_OV_STS16_STATUS_REG;
 359:Generated_Source\PSoC5/VFD_1.c ****         uvLocal.bytes[STS_B2] = (uint8)~(VFD_1_PG_STS16_STATUS_REG | ovLocal.bytes[STS_B2]);
 360:Generated_Source\PSoC5/VFD_1.c ****     #else
 361:Generated_Source\PSoC5/VFD_1.c ****         ovLocal.bytes[STS_B2] = 0u;
 362:Generated_Source\PSoC5/VFD_1.c ****         uvLocal.bytes[STS_B2] = 0u;
 363:Generated_Source\PSoC5/VFD_1.c ****     #endif /* VFD_1_PG_STS16_STATUS_REG */
 364:Generated_Source\PSoC5/VFD_1.c ****     #ifdef VFD_1_PG_STS24_STATUS_REG
 365:Generated_Source\PSoC5/VFD_1.c ****         ovLocal.bytes[STS_B3] = VFD_1_OV_STS24_STATUS_REG;
 366:Generated_Source\PSoC5/VFD_1.c ****         uvLocal.bytes[STS_B3] = (uint8)~(VFD_1_PG_STS24_STATUS_REG | ovLocal.bytes[STS_B3]);
 367:Generated_Source\PSoC5/VFD_1.c ****     #else
 368:Generated_Source\PSoC5/VFD_1.c ****         ovLocal.bytes[STS_B3] = 0u;
 369:Generated_Source\PSoC5/VFD_1.c ****         uvLocal.bytes[STS_B3] = 0u;
 370:Generated_Source\PSoC5/VFD_1.c ****     #endif /* VFD_1_PG_STS24_STATUS_REG */
 371:Generated_Source\PSoC5/VFD_1.c ****     #ifdef VFD_1_PG_STS32_STATUS_REG
 372:Generated_Source\PSoC5/VFD_1.c ****         ovLocal.bytes[STS_B4] = VFD_1_OV_STS32_STATUS_REG;
 373:Generated_Source\PSoC5/VFD_1.c ****         uvLocal.bytes[STS_B4] = (uint8)~(VFD_1_PG_STS32_STATUS_REG | ovLocal.bytes[STS_B4]);
 374:Generated_Source\PSoC5/VFD_1.c ****     #else
ARM GAS  C:\Users\dph5ah\AppData\Local\Temp\ccrP8Bjg.s 			page 8


 375:Generated_Source\PSoC5/VFD_1.c ****         ovLocal.bytes[STS_B4] = 0u;
 376:Generated_Source\PSoC5/VFD_1.c ****         uvLocal.bytes[STS_B4] = 0u;
 377:Generated_Source\PSoC5/VFD_1.c ****     #endif /* VFD_1_PG_STS32_STATUS_REG */
 378:Generated_Source\PSoC5/VFD_1.c **** 
 379:Generated_Source\PSoC5/VFD_1.c ****     *ovStatus = ovLocal.word;
 380:Generated_Source\PSoC5/VFD_1.c ****     *uvStatus = uvLocal.word;
 381:Generated_Source\PSoC5/VFD_1.c **** }
 382:Generated_Source\PSoC5/VFD_1.c **** 
 383:Generated_Source\PSoC5/VFD_1.c **** #elif (VFD_1_COMP_TYPE == VFD_1_OV)
 384:Generated_Source\PSoC5/VFD_1.c **** 
 385:Generated_Source\PSoC5/VFD_1.c **** /*******************************************************************************
 386:Generated_Source\PSoC5/VFD_1.c **** * Function Name: VFD_1_GetOVFaultStatus
 387:Generated_Source\PSoC5/VFD_1.c **** ********************************************************************************
 388:Generated_Source\PSoC5/VFD_1.c **** *
 389:Generated_Source\PSoC5/VFD_1.c **** * Summary:
 390:Generated_Source\PSoC5/VFD_1.c **** *  Returns the OV status detected for all voltages.
 391:Generated_Source\PSoC5/VFD_1.c **** *
 392:Generated_Source\PSoC5/VFD_1.c **** * Parameters:
 393:Generated_Source\PSoC5/VFD_1.c **** *  None.
 394:Generated_Source\PSoC5/VFD_1.c **** *
 395:Generated_Source\PSoC5/VFD_1.c **** * Return:
 396:Generated_Source\PSoC5/VFD_1.c **** *  None.
 397:Generated_Source\PSoC5/VFD_1.c **** *
 398:Generated_Source\PSoC5/VFD_1.c **** * Reentrant:
 399:Generated_Source\PSoC5/VFD_1.c **** *  No.
 400:Generated_Source\PSoC5/VFD_1.c **** *
 401:Generated_Source\PSoC5/VFD_1.c **** *******************************************************************************/
 402:Generated_Source\PSoC5/VFD_1.c **** void VFD_1_GetOVFaultStatus(uint32 * status) 
 403:Generated_Source\PSoC5/VFD_1.c **** {
 404:Generated_Source\PSoC5/VFD_1.c ****     FAULT_STS CYDATA stsLocal;
 405:Generated_Source\PSoC5/VFD_1.c **** 
 406:Generated_Source\PSoC5/VFD_1.c ****     #ifdef __CC_ARM
 407:Generated_Source\PSoC5/VFD_1.c ****         /* ARMCC compiler issues C4017W warnings about the use of uninitialized
 408:Generated_Source\PSoC5/VFD_1.c ****         * variables. The compiler cannot reliably identify faulty code and any
 409:Generated_Source\PSoC5/VFD_1.c ****         * C4017W warnings are intended only as an indication of possible problems.
 410:Generated_Source\PSoC5/VFD_1.c ****         */
 411:Generated_Source\PSoC5/VFD_1.c ****         stsLocal.word = 0u;
 412:Generated_Source\PSoC5/VFD_1.c ****     #endif /* __CC_ARM */
 413:Generated_Source\PSoC5/VFD_1.c **** 
 414:Generated_Source\PSoC5/VFD_1.c ****     #ifdef VFD_1_OV_STS8_STATUS_REG
 415:Generated_Source\PSoC5/VFD_1.c ****         stsLocal.bytes[STS_B1] = VFD_1_OV_STS8_STATUS_REG;
 416:Generated_Source\PSoC5/VFD_1.c ****     #endif /* VFD_1_OV_STS8_STATUS_REG */
 417:Generated_Source\PSoC5/VFD_1.c ****     #ifdef VFD_1_OV_STS16_STATUS_REG
 418:Generated_Source\PSoC5/VFD_1.c ****         stsLocal.bytes[STS_B2] = VFD_1_OV_STS16_STATUS_REG;
 419:Generated_Source\PSoC5/VFD_1.c ****     #else
 420:Generated_Source\PSoC5/VFD_1.c ****         stsLocal.bytes[STS_B2] = 0u;
 421:Generated_Source\PSoC5/VFD_1.c ****     #endif /* VFD_1_OV_STS16_STATUS_REG */
 422:Generated_Source\PSoC5/VFD_1.c ****     #ifdef VFD_1_OV_STS24_STATUS_REG
 423:Generated_Source\PSoC5/VFD_1.c ****         stsLocal.bytes[STS_B3] = VFD_1_OV_STS24_STATUS_REG;
 424:Generated_Source\PSoC5/VFD_1.c ****     #else
 425:Generated_Source\PSoC5/VFD_1.c ****         stsLocal.bytes[STS_B3] = 0u;
 426:Generated_Source\PSoC5/VFD_1.c ****     #endif /* VFD_1_OV_STS24_STATUS_REG */
 427:Generated_Source\PSoC5/VFD_1.c ****     #ifdef VFD_1_OV_STS32_STATUS_REG
 428:Generated_Source\PSoC5/VFD_1.c ****         stsLocal.bytes[STS_B4] = VFD_1_OV_STS32_STATUS_REG;
 429:Generated_Source\PSoC5/VFD_1.c ****     #else
 430:Generated_Source\PSoC5/VFD_1.c ****         stsLocal.bytes[STS_B4] = 0u;
 431:Generated_Source\PSoC5/VFD_1.c ****     #endif /* VFD_1_OV_STS32_STATUS_REG */
ARM GAS  C:\Users\dph5ah\AppData\Local\Temp\ccrP8Bjg.s 			page 9


 432:Generated_Source\PSoC5/VFD_1.c **** 
 433:Generated_Source\PSoC5/VFD_1.c ****     *status = stsLocal.word;
 434:Generated_Source\PSoC5/VFD_1.c **** }
 435:Generated_Source\PSoC5/VFD_1.c **** 
 436:Generated_Source\PSoC5/VFD_1.c **** #else 
 437:Generated_Source\PSoC5/VFD_1.c **** 
 438:Generated_Source\PSoC5/VFD_1.c **** /*******************************************************************************
 439:Generated_Source\PSoC5/VFD_1.c **** * Function Name: VFD_1_GetUVFaultStatus
 440:Generated_Source\PSoC5/VFD_1.c **** ********************************************************************************
 441:Generated_Source\PSoC5/VFD_1.c **** *
 442:Generated_Source\PSoC5/VFD_1.c **** * Summary:
 443:Generated_Source\PSoC5/VFD_1.c **** *  Returns the UV status detected for all voltages.
 444:Generated_Source\PSoC5/VFD_1.c **** *
 445:Generated_Source\PSoC5/VFD_1.c **** * Parameters:
 446:Generated_Source\PSoC5/VFD_1.c **** *  None.
 447:Generated_Source\PSoC5/VFD_1.c **** *
 448:Generated_Source\PSoC5/VFD_1.c **** * Return:
 449:Generated_Source\PSoC5/VFD_1.c **** *  None.
 450:Generated_Source\PSoC5/VFD_1.c **** *
 451:Generated_Source\PSoC5/VFD_1.c **** * Reentrant:
 452:Generated_Source\PSoC5/VFD_1.c **** *  No.
 453:Generated_Source\PSoC5/VFD_1.c **** *
 454:Generated_Source\PSoC5/VFD_1.c **** *******************************************************************************/
 455:Generated_Source\PSoC5/VFD_1.c **** void VFD_1_GetUVFaultStatus(uint32 * status) 
 456:Generated_Source\PSoC5/VFD_1.c **** {
 457:Generated_Source\PSoC5/VFD_1.c ****     FAULT_STS CYDATA stsLocal;
 458:Generated_Source\PSoC5/VFD_1.c **** 
 459:Generated_Source\PSoC5/VFD_1.c ****     #ifdef __CC_ARM
 460:Generated_Source\PSoC5/VFD_1.c ****         /* ARMCC compiler issues C4017W warnings about the use of uninitialized
 461:Generated_Source\PSoC5/VFD_1.c ****         * variables. The compiler cannot reliably identify faulty code and any
 462:Generated_Source\PSoC5/VFD_1.c ****         * C4017W warnings are intended only as an indication of possible problems.
 463:Generated_Source\PSoC5/VFD_1.c ****         */
 464:Generated_Source\PSoC5/VFD_1.c ****         stsLocal.word = 0u;
 465:Generated_Source\PSoC5/VFD_1.c ****     #endif /* __CC_ARM */
 466:Generated_Source\PSoC5/VFD_1.c **** 
 467:Generated_Source\PSoC5/VFD_1.c ****     #ifdef VFD_1_PG_STS8_STATUS_REG
 468:Generated_Source\PSoC5/VFD_1.c ****         stsLocal.bytes[STS_B1] = (uint8)~VFD_1_PG_STS8_STATUS_REG;
 469:Generated_Source\PSoC5/VFD_1.c ****     #endif /* VFD_1_PG_STS8_STATUS_REG */
 470:Generated_Source\PSoC5/VFD_1.c ****     #ifdef VFD_1_PG_STS16_STATUS_REG
 471:Generated_Source\PSoC5/VFD_1.c ****         stsLocal.bytes[STS_B2] = (uint8)~VFD_1_PG_STS16_STATUS_REG;
 472:Generated_Source\PSoC5/VFD_1.c ****     #else
 473:Generated_Source\PSoC5/VFD_1.c ****         stsLocal.bytes[STS_B2] = 0u;
 474:Generated_Source\PSoC5/VFD_1.c ****     #endif /* VFD_1_PG_STS16_STATUS_REG */
 475:Generated_Source\PSoC5/VFD_1.c ****     #ifdef VFD_1_PG_STS24_STATUS_REG
 476:Generated_Source\PSoC5/VFD_1.c ****         stsLocal.bytes[STS_B3] = (uint8)~VFD_1_PG_STS24_STATUS_REG;
 477:Generated_Source\PSoC5/VFD_1.c ****     #else
 478:Generated_Source\PSoC5/VFD_1.c ****         stsLocal.bytes[STS_B3] = 0u;
 479:Generated_Source\PSoC5/VFD_1.c ****     #endif /* VFD_1_PG_STS24_STATUS_REG */
 480:Generated_Source\PSoC5/VFD_1.c ****     #ifdef VFD_1_PG_STS32_STATUS_REG
 481:Generated_Source\PSoC5/VFD_1.c ****         stsLocal.bytes[STS_B4] = (uint8)~VFD_1_PG_STS32_STATUS_REG;
 482:Generated_Source\PSoC5/VFD_1.c ****     #else
 483:Generated_Source\PSoC5/VFD_1.c ****         stsLocal.bytes[STS_B4] = 0u;
 484:Generated_Source\PSoC5/VFD_1.c ****     #endif /* VFD_1_PG_STS32_STATUS_REG */
 485:Generated_Source\PSoC5/VFD_1.c **** 
 486:Generated_Source\PSoC5/VFD_1.c ****     *status = stsLocal.word;
 487:Generated_Source\PSoC5/VFD_1.c **** }
 488:Generated_Source\PSoC5/VFD_1.c **** 
ARM GAS  C:\Users\dph5ah\AppData\Local\Temp\ccrP8Bjg.s 			page 10


 489:Generated_Source\PSoC5/VFD_1.c **** #endif /* (VFD_1_COMP_TYPE == VFD_1_OV_UV) */
 490:Generated_Source\PSoC5/VFD_1.c **** 
 491:Generated_Source\PSoC5/VFD_1.c **** 
 492:Generated_Source\PSoC5/VFD_1.c **** /*******************************************************************************
 493:Generated_Source\PSoC5/VFD_1.c **** * Function Name: VFD_1_ComparatorCal
 494:Generated_Source\PSoC5/VFD_1.c **** ********************************************************************************
 495:Generated_Source\PSoC5/VFD_1.c **** *
 496:Generated_Source\PSoC5/VFD_1.c **** * Summary:
 497:Generated_Source\PSoC5/VFD_1.c **** *  Runs a calibration routine that measures the selected comparator's offset 
 498:Generated_Source\PSoC5/VFD_1.c **** *  voltage by shorting its inputs together and corrects for it by writing to the
 499:Generated_Source\PSoC5/VFD_1.c **** *  CMP block's trim register.
 500:Generated_Source\PSoC5/VFD_1.c **** *
 501:Generated_Source\PSoC5/VFD_1.c **** * Parameters:
 502:Generated_Source\PSoC5/VFD_1.c **** *  enum compType
 503:Generated_Source\PSoC5/VFD_1.c **** *    Valid values: VFD_1_OV, VFD_1_UV.
 504:Generated_Source\PSoC5/VFD_1.c **** *
 505:Generated_Source\PSoC5/VFD_1.c **** * Return:
 506:Generated_Source\PSoC5/VFD_1.c **** *  None.
 507:Generated_Source\PSoC5/VFD_1.c **** *
 508:Generated_Source\PSoC5/VFD_1.c **** * Side Effects:
 509:Generated_Source\PSoC5/VFD_1.c **** *  Calling this API may cause the comparator to trigger a fault condition. To 
 510:Generated_Source\PSoC5/VFD_1.c **** *  prevent this, call the VFD_Pause() API prior to calling this API.
 511:Generated_Source\PSoC5/VFD_1.c **** *
 512:Generated_Source\PSoC5/VFD_1.c **** * Reentrant:
 513:Generated_Source\PSoC5/VFD_1.c **** *  No.
 514:Generated_Source\PSoC5/VFD_1.c **** *
 515:Generated_Source\PSoC5/VFD_1.c **** *******************************************************************************/
 516:Generated_Source\PSoC5/VFD_1.c **** void VFD_1_ComparatorCal(uint8 compType) 
 517:Generated_Source\PSoC5/VFD_1.c **** {    
 518:Generated_Source\PSoC5/VFD_1.c ****     #if (VFD_1_ENABLE_OV_DETECT)
 519:Generated_Source\PSoC5/VFD_1.c ****         if(compType == VFD_1_OV)
 520:Generated_Source\PSoC5/VFD_1.c ****         {
 521:Generated_Source\PSoC5/VFD_1.c ****             (void) VFD_1_Comp_OV_ZeroCal();
 522:Generated_Source\PSoC5/VFD_1.c ****         }
 523:Generated_Source\PSoC5/VFD_1.c ****     #endif /*VFD_1_ENABLE_OV_DETECT */
 524:Generated_Source\PSoC5/VFD_1.c **** 
 525:Generated_Source\PSoC5/VFD_1.c ****     #if (VFD_1_ENABLE_UV_DETECT)
 526:Generated_Source\PSoC5/VFD_1.c ****         if(compType == VFD_1_UV)
 527:Generated_Source\PSoC5/VFD_1.c ****         {
 528:Generated_Source\PSoC5/VFD_1.c ****             (void) VFD_1_Comp_UV_ZeroCal();
 529:Generated_Source\PSoC5/VFD_1.c ****         }
 530:Generated_Source\PSoC5/VFD_1.c ****     #endif /* VFD_1_ENABLE_UV_DETECT */
 531:Generated_Source\PSoC5/VFD_1.c **** }
 532:Generated_Source\PSoC5/VFD_1.c **** 
 533:Generated_Source\PSoC5/VFD_1.c **** 
 534:Generated_Source\PSoC5/VFD_1.c **** /*******************************************************************************
 535:Generated_Source\PSoC5/VFD_1.c **** * Function Name: VFD_1_SetSpeed
 536:Generated_Source\PSoC5/VFD_1.c **** ********************************************************************************
 537:Generated_Source\PSoC5/VFD_1.c **** *
 538:Generated_Source\PSoC5/VFD_1.c **** * Summary:
 539:Generated_Source\PSoC5/VFD_1.c **** *  Sets the speed mode for the Voltage DACs and Comparators.
 540:Generated_Source\PSoC5/VFD_1.c **** *
 541:Generated_Source\PSoC5/VFD_1.c **** * Parameters:
 542:Generated_Source\PSoC5/VFD_1.c **** *  speedMode: specifies the speed mode. Valid values are VFD_1_LOW_SPEED
 543:Generated_Source\PSoC5/VFD_1.c **** *             and VFD_1_HIGH_SPEED.
 544:Generated_Source\PSoC5/VFD_1.c **** *
 545:Generated_Source\PSoC5/VFD_1.c **** * Return:
ARM GAS  C:\Users\dph5ah\AppData\Local\Temp\ccrP8Bjg.s 			page 11


 546:Generated_Source\PSoC5/VFD_1.c **** *  None
 547:Generated_Source\PSoC5/VFD_1.c **** *
 548:Generated_Source\PSoC5/VFD_1.c **** * Reentrant:
 549:Generated_Source\PSoC5/VFD_1.c **** *  No
 550:Generated_Source\PSoC5/VFD_1.c **** *
 551:Generated_Source\PSoC5/VFD_1.c **** *******************************************************************************/
 552:Generated_Source\PSoC5/VFD_1.c **** void VFD_1_SetSpeed(uint8 speedMode) 
 553:Generated_Source\PSoC5/VFD_1.c **** {
 554:Generated_Source\PSoC5/VFD_1.c ****     if(speedMode == VFD_1_LOW_SPEED)
 555:Generated_Source\PSoC5/VFD_1.c ****     {
 556:Generated_Source\PSoC5/VFD_1.c ****         #if (VFD_1_ENABLE_OV_DETECT)
 557:Generated_Source\PSoC5/VFD_1.c ****             VFD_1_SetOVSpeed(LOWSPEED);
 558:Generated_Source\PSoC5/VFD_1.c ****         #endif /* VFD_1_ENABLE_OV_DETECT */
 559:Generated_Source\PSoC5/VFD_1.c **** 
 560:Generated_Source\PSoC5/VFD_1.c ****         #if (VFD_1_ENABLE_UV_DETECT)
 561:Generated_Source\PSoC5/VFD_1.c ****             VFD_1_SetUVSpeed(LOWSPEED);
 562:Generated_Source\PSoC5/VFD_1.c ****         #endif /* VFD_1_ENABLE_UV_DETECT */
 563:Generated_Source\PSoC5/VFD_1.c ****     }
 564:Generated_Source\PSoC5/VFD_1.c ****     else
 565:Generated_Source\PSoC5/VFD_1.c ****     {
 566:Generated_Source\PSoC5/VFD_1.c ****         #if (VFD_1_ENABLE_OV_DETECT)
 567:Generated_Source\PSoC5/VFD_1.c ****             VFD_1_SetOVSpeed(HIGHSPEED);
 568:Generated_Source\PSoC5/VFD_1.c ****         #endif /* VFD_1_ENABLE_OV_DETECT */
 569:Generated_Source\PSoC5/VFD_1.c **** 
 570:Generated_Source\PSoC5/VFD_1.c ****         #if (VFD_1_ENABLE_UV_DETECT)
 571:Generated_Source\PSoC5/VFD_1.c ****             VFD_1_SetUVSpeed(HIGHSPEED);
 572:Generated_Source\PSoC5/VFD_1.c ****         #endif /* VFD_1_ENABLE_UV_DETECT */
 573:Generated_Source\PSoC5/VFD_1.c ****     }
 574:Generated_Source\PSoC5/VFD_1.c **** }
 575:Generated_Source\PSoC5/VFD_1.c **** 
 576:Generated_Source\PSoC5/VFD_1.c ****     
 577:Generated_Source\PSoC5/VFD_1.c **** /*******************************************************************************
 578:Generated_Source\PSoC5/VFD_1.c **** * Function Name: VFD_1_AMuxDmaInit
 579:Generated_Source\PSoC5/VFD_1.c **** ********************************************************************************
 580:Generated_Source\PSoC5/VFD_1.c **** *
 581:Generated_Source\PSoC5/VFD_1.c **** * Summary:
 582:Generated_Source\PSoC5/VFD_1.c **** *  Initializes the DMA controlled analog multiplexer. On receiving a trigger,
 583:Generated_Source\PSoC5/VFD_1.c **** *  the AMUX DMA channel connects the next analog input voltage to the window
 584:Generated_Source\PSoC5/VFD_1.c **** *  comparator. The DMA controller disconnects the previous input before
 585:Generated_Source\PSoC5/VFD_1.c **** *  connecting the next input to ensure a break-before-make connection.
 586:Generated_Source\PSoC5/VFD_1.c **** *
 587:Generated_Source\PSoC5/VFD_1.c **** * Parameters:
 588:Generated_Source\PSoC5/VFD_1.c **** *  None.
 589:Generated_Source\PSoC5/VFD_1.c **** *
 590:Generated_Source\PSoC5/VFD_1.c **** * Return:
 591:Generated_Source\PSoC5/VFD_1.c **** *  None.
 592:Generated_Source\PSoC5/VFD_1.c **** *
 593:Generated_Source\PSoC5/VFD_1.c **** * Reentrant:
 594:Generated_Source\PSoC5/VFD_1.c **** *  No.
 595:Generated_Source\PSoC5/VFD_1.c **** *
 596:Generated_Source\PSoC5/VFD_1.c **** *******************************************************************************/
 597:Generated_Source\PSoC5/VFD_1.c **** static void VFD_1_AMuxDmaInit(void) 
 598:Generated_Source\PSoC5/VFD_1.c **** {      
  26              		.loc 1 598 0
  27              		.cfi_startproc
  28              		@ args = 0, pretend = 0, frame = 0
  29              		@ frame_needed = 0, uses_anonymous_args = 0
ARM GAS  C:\Users\dph5ah\AppData\Local\Temp\ccrP8Bjg.s 			page 12


  30 0000 2DE9F041 		push	{r4, r5, r6, r7, r8, lr}
  31              		.cfi_def_cfa_offset 24
  32              		.cfi_offset 4, -24
  33              		.cfi_offset 5, -20
  34              		.cfi_offset 6, -16
  35              		.cfi_offset 7, -12
  36              		.cfi_offset 8, -8
  37              		.cfi_offset 14, -4
 599:Generated_Source\PSoC5/VFD_1.c ****     /* Chained TD pair is used to break previous AMux connection before
 600:Generated_Source\PSoC5/VFD_1.c ****     * making new connection, i.e. td0(break)->td1(make).
 601:Generated_Source\PSoC5/VFD_1.c ****     */
 602:Generated_Source\PSoC5/VFD_1.c ****     uint8 td0;
 603:Generated_Source\PSoC5/VFD_1.c ****     uint8 td1;
 604:Generated_Source\PSoC5/VFD_1.c ****     uint8 td;
 605:Generated_Source\PSoC5/VFD_1.c **** 
 606:Generated_Source\PSoC5/VFD_1.c ****     /* 0x00 is written into AMux port to break connection */
 607:Generated_Source\PSoC5/VFD_1.c ****     static uint8 amuxClear = 0u;
 608:Generated_Source\PSoC5/VFD_1.c **** 
 609:Generated_Source\PSoC5/VFD_1.c ****     /* Copy AMux mask table to SRAM to improve DMA transfer performance */
 610:Generated_Source\PSoC5/VFD_1.c ****     static uint8 amuxMaskTable[VFD_1_NUMBER_OF_VOLTAGES];
 611:Generated_Source\PSoC5/VFD_1.c ****     (void)memcpy((void *)amuxMaskTable, (const void *)VFD_1_AMux__maskTable, VFD_1_NUMBER_OF_VOLTAG
  38              		.loc 1 611 0
  39 0004 1F4C     		ldr	r4, .L6
  40 0006 204B     		ldr	r3, .L6+4
  41 0008 1B78     		ldrb	r3, [r3]	@ zero_extendqisi2
  42 000a 2370     		strb	r3, [r4]
 612:Generated_Source\PSoC5/VFD_1.c **** 
 613:Generated_Source\PSoC5/VFD_1.c ****     amuxDmaCh = VFD_1_DMA_CFG(MuxDMA, AMUX_DMA_DATA_SIZE, HI16(CYDEV_SRAM_BASE), HI16(CYDEV_PERIPH_
  43              		.loc 1 613 0
  44 000c 0120     		movs	r0, #1
  45 000e 0146     		mov	r1, r0
  46 0010 41F6FF72 		movw	r2, #8191
  47 0014 4FF48043 		mov	r3, #16384
  48 0018 FFF7FEFF 		bl	VFD_1_MuxDMA_DmaInitialize
  49              	.LVL0:
  50 001c 6070     		strb	r0, [r4, #1]
  51              	.LVL1:
 614:Generated_Source\PSoC5/VFD_1.c **** 
 615:Generated_Source\PSoC5/VFD_1.c ****     td1 = CY_DMA_INVALID_TD;
 616:Generated_Source\PSoC5/VFD_1.c ****     for(td = 0u; td < VFD_1_NUMBER_OF_VOLTAGES; ++td)
  52              		.loc 1 616 0
  53 001e 0024     		movs	r4, #0
 615:Generated_Source\PSoC5/VFD_1.c ****     for(td = 0u; td < VFD_1_NUMBER_OF_VOLTAGES; ++td)
  54              		.loc 1 615 0
  55 0020 FF27     		movs	r7, #255
  56              		.loc 1 616 0
  57 0022 24E0     		b	.L2
  58              	.LVL2:
  59              	.L4:
 617:Generated_Source\PSoC5/VFD_1.c ****     {
 618:Generated_Source\PSoC5/VFD_1.c ****         /* TD0: Move 0 into channel being disconnected (break) */
 619:Generated_Source\PSoC5/VFD_1.c ****         td0 = CyDmaTdAllocate();
  60              		.loc 1 619 0
  61 0024 FFF7FEFF 		bl	CyDmaTdAllocate
  62              	.LVL3:
  63 0028 8046     		mov	r8, r0
  64              	.LVL4:
ARM GAS  C:\Users\dph5ah\AppData\Local\Temp\ccrP8Bjg.s 			page 13


 620:Generated_Source\PSoC5/VFD_1.c ****         (void)CyDmaTdSetAddress(td0, LO16((uint32)&amuxClear), LO16((uint32)VFD_1_AMux__addrTable[t
  65              		.loc 1 620 0
  66 002a 164D     		ldr	r5, .L6
  67 002c A91C     		adds	r1, r5, #2
  68 002e 174B     		ldr	r3, .L6+8
  69 0030 33F82460 		ldrh	r6, [r3, r4, lsl #2]
  70 0034 89B2     		uxth	r1, r1
  71 0036 3246     		mov	r2, r6
  72 0038 FFF7FEFF 		bl	CyDmaTdSetAddress
  73              	.LVL5:
 621:Generated_Source\PSoC5/VFD_1.c ****         (void)CyDmaTdSetConfiguration(td0,  AMUX_DMA_DATA_NR, td1, CY_DMA_TD_AUTO_EXEC_NEXT);
  74              		.loc 1 621 0
  75 003c 4046     		mov	r0, r8
  76 003e 0121     		movs	r1, #1
  77 0040 3A46     		mov	r2, r7
  78 0042 2023     		movs	r3, #32
  79 0044 FFF7FEFF 		bl	CyDmaTdSetConfiguration
  80              	.LVL6:
 622:Generated_Source\PSoC5/VFD_1.c ****         
 623:Generated_Source\PSoC5/VFD_1.c ****         /* TD1: Move proper AMux mask into channel being connected (make) */
 624:Generated_Source\PSoC5/VFD_1.c ****         td1 = CyDmaTdAllocate();
  81              		.loc 1 624 0
  82 0048 FFF7FEFF 		bl	CyDmaTdAllocate
  83              	.LVL7:
  84 004c 0746     		mov	r7, r0
  85              	.LVL8:
 625:Generated_Source\PSoC5/VFD_1.c ****         (void)CyDmaTdSetAddress(td1, LO16((uint32)&amuxMaskTable[td]), LO16((uint32)VFD_1_AMux__add
  86              		.loc 1 625 0
  87 004e 2919     		adds	r1, r5, r4
  88 0050 89B2     		uxth	r1, r1
  89 0052 3246     		mov	r2, r6
  90 0054 FFF7FEFF 		bl	CyDmaTdSetAddress
  91              	.LVL9:
 626:Generated_Source\PSoC5/VFD_1.c ****         (void)CyDmaTdSetConfiguration(td1, AMUX_DMA_DATA_NR, td0, VFD_1_MuxDMA__TD_TERMOUT_EN);
  92              		.loc 1 626 0
  93 0058 3846     		mov	r0, r7
  94 005a 0121     		movs	r1, #1
  95 005c 4246     		mov	r2, r8
  96 005e 0423     		movs	r3, #4
  97 0060 FFF7FEFF 		bl	CyDmaTdSetConfiguration
  98              	.LVL10:
 627:Generated_Source\PSoC5/VFD_1.c ****         
 628:Generated_Source\PSoC5/VFD_1.c ****         /* Store initial TD in chain */
 629:Generated_Source\PSoC5/VFD_1.c ****         if(td == 0u)
  99              		.loc 1 629 0
 100 0064 0CB9     		cbnz	r4, .L3
 630:Generated_Source\PSoC5/VFD_1.c ****         {
 631:Generated_Source\PSoC5/VFD_1.c ****             amuxDmaTd = td0;
 101              		.loc 1 631 0
 102 0066 85F80380 		strb	r8, [r5, #3]
 103              	.L3:
 616:Generated_Source\PSoC5/VFD_1.c ****     {
 104              		.loc 1 616 0 discriminator 2
 105 006a 0134     		adds	r4, r4, #1
 106              	.LVL11:
 107 006c E4B2     		uxtb	r4, r4
 108              	.LVL12:
ARM GAS  C:\Users\dph5ah\AppData\Local\Temp\ccrP8Bjg.s 			page 14


 109              	.L2:
 616:Generated_Source\PSoC5/VFD_1.c ****     {
 110              		.loc 1 616 0 is_stmt 0 discriminator 1
 111 006e 002C     		cmp	r4, #0
 112 0070 D8D0     		beq	.L4
 632:Generated_Source\PSoC5/VFD_1.c ****         }
 633:Generated_Source\PSoC5/VFD_1.c ****     }
 634:Generated_Source\PSoC5/VFD_1.c **** 
 635:Generated_Source\PSoC5/VFD_1.c ****     /* The initial TD is configured to join this TD chain into a ring.
 636:Generated_Source\PSoC5/VFD_1.c ****     * The TD execution order is as follows.
 637:Generated_Source\PSoC5/VFD_1.c ****     * break[0]->set[N-1]->break[N-1]->set[N-2]->...->break[1]->set[0]
 638:Generated_Source\PSoC5/VFD_1.c ****     * This matches the control logic that uses a down counter to track the
 639:Generated_Source\PSoC5/VFD_1.c ****     * voltage number being scanned. 
 640:Generated_Source\PSoC5/VFD_1.c ****     */
 641:Generated_Source\PSoC5/VFD_1.c ****     (void)CyDmaTdSetConfiguration(amuxDmaTd,  AMUX_DMA_DATA_NR, td1, CY_DMA_TD_AUTO_EXEC_NEXT);
 113              		.loc 1 641 0 is_stmt 1
 114 0072 044B     		ldr	r3, .L6
 115 0074 D878     		ldrb	r0, [r3, #3]	@ zero_extendqisi2
 116 0076 0121     		movs	r1, #1
 117 0078 3A46     		mov	r2, r7
 118 007a 2023     		movs	r3, #32
 119 007c FFF7FEFF 		bl	CyDmaTdSetConfiguration
 120              	.LVL13:
 121 0080 BDE8F081 		pop	{r4, r5, r6, r7, r8, pc}
 122              	.LVL14:
 123              	.L7:
 124              		.align	2
 125              	.L6:
 126 0084 00000000 		.word	.LANCHOR0
 127 0088 00000000 		.word	VFD_1_AMux__maskTable
 128 008c 00000000 		.word	VFD_1_AMux__addrTable
 129              		.cfi_endproc
 130              	.LFE7:
 131              		.size	VFD_1_AMuxDmaInit, .-VFD_1_AMuxDmaInit
 132              		.section	.text.VFD_1_GlitchFilterDmaInit,"ax",%progbits
 133              		.align	2
 134              		.thumb
 135              		.thumb_func
 136              		.type	VFD_1_GlitchFilterDmaInit, %function
 137              	VFD_1_GlitchFilterDmaInit:
 138              	.LFB8:
 642:Generated_Source\PSoC5/VFD_1.c **** }
 643:Generated_Source\PSoC5/VFD_1.c **** 
 644:Generated_Source\PSoC5/VFD_1.c **** 
 645:Generated_Source\PSoC5/VFD_1.c **** /***************************************************************************
 646:Generated_Source\PSoC5/VFD_1.c **** * Function Name: VFD_1_GlitchFilterDmaInit
 647:Generated_Source\PSoC5/VFD_1.c **** ****************************************************************************
 648:Generated_Source\PSoC5/VFD_1.c **** *
 649:Generated_Source\PSoC5/VFD_1.c **** * Summary:
 650:Generated_Source\PSoC5/VFD_1.c **** *  Initializes the glitch filter. The glitch filter outputs a 1 only when the 
 651:Generated_Source\PSoC5/VFD_1.c **** *  current and previous N samples are 1, and a 0 only when the current and
 652:Generated_Source\PSoC5/VFD_1.c **** *  previous N samples are 0. Otherwise the output is unchanged from its
 653:Generated_Source\PSoC5/VFD_1.c **** *  current value. The glitch filtering process uses a DMA controller to read
 654:Generated_Source\PSoC5/VFD_1.c **** *  the previous filter count for the current voltage from SRAM and write the
 655:Generated_Source\PSoC5/VFD_1.c **** *  updated filter count back to SRAM after the voltage is processed.
 656:Generated_Source\PSoC5/VFD_1.c **** *
 657:Generated_Source\PSoC5/VFD_1.c **** * Parameters:
ARM GAS  C:\Users\dph5ah\AppData\Local\Temp\ccrP8Bjg.s 			page 15


 658:Generated_Source\PSoC5/VFD_1.c **** *  None.
 659:Generated_Source\PSoC5/VFD_1.c **** *
 660:Generated_Source\PSoC5/VFD_1.c **** * Return:
 661:Generated_Source\PSoC5/VFD_1.c **** *  None.
 662:Generated_Source\PSoC5/VFD_1.c **** *
 663:Generated_Source\PSoC5/VFD_1.c **** * Reentrant:
 664:Generated_Source\PSoC5/VFD_1.c **** *  No.
 665:Generated_Source\PSoC5/VFD_1.c **** *
 666:Generated_Source\PSoC5/VFD_1.c **** ***************************************************************************/
 667:Generated_Source\PSoC5/VFD_1.c **** static void VFD_1_GlitchFilterDmaInit(void) 
 668:Generated_Source\PSoC5/VFD_1.c **** {
 139              		.loc 1 668 0
 140              		.cfi_startproc
 141              		@ args = 0, pretend = 0, frame = 0
 142              		@ frame_needed = 0, uses_anonymous_args = 0
 143 0000 70B5     		push	{r4, r5, r6, lr}
 144              		.cfi_def_cfa_offset 16
 145              		.cfi_offset 4, -16
 146              		.cfi_offset 5, -12
 147              		.cfi_offset 6, -8
 148              		.cfi_offset 14, -4
 669:Generated_Source\PSoC5/VFD_1.c ****     uint8 td;
 670:Generated_Source\PSoC5/VFD_1.c **** 
 671:Generated_Source\PSoC5/VFD_1.c ****     /* Reads previous glitch filter count for current input from SRAM */
 672:Generated_Source\PSoC5/VFD_1.c ****     filtRdDmaCh = VFD_1_DMA_CFG(FiltRdDMA, FILT_DMA_DATA_SIZE, HI16(CYDEV_SRAM_BASE), HI16(CYDEV_PE
 149              		.loc 1 672 0
 150 0002 0220     		movs	r0, #2
 151 0004 0121     		movs	r1, #1
 152 0006 41F6FF72 		movw	r2, #8191
 153 000a 4FF48043 		mov	r3, #16384
 154 000e FFF7FEFF 		bl	VFD_1_FiltRdDMA_DmaInitialize
 155              	.LVL15:
 156 0012 194C     		ldr	r4, .L10
 157 0014 2071     		strb	r0, [r4, #4]
 673:Generated_Source\PSoC5/VFD_1.c ****     td = CyDmaTdAllocate();
 158              		.loc 1 673 0
 159 0016 FFF7FEFF 		bl	CyDmaTdAllocate
 160              	.LVL16:
 161 001a 0646     		mov	r6, r0
 162              	.LVL17:
 674:Generated_Source\PSoC5/VFD_1.c ****     (void)CyDmaTdSetConfiguration(td, sizeof(filtCount), td, CY_DMA_TD_INC_SRC_ADR);
 163              		.loc 1 674 0
 164 001c 0221     		movs	r1, #2
 165 001e 0246     		mov	r2, r0
 166 0020 0123     		movs	r3, #1
 167 0022 FFF7FEFF 		bl	CyDmaTdSetConfiguration
 168              	.LVL18:
 675:Generated_Source\PSoC5/VFD_1.c ****     (void)CyDmaTdSetAddress(td, LO16((uint32)filtCount), LO16((uint32)VFD_1_FILTER_IN_FIFO_PTR));
 169              		.loc 1 675 0
 170 0026 04F10805 		add	r5, r4, #8
 171 002a ADB2     		uxth	r5, r5
 172 002c 3046     		mov	r0, r6
 173 002e 2946     		mov	r1, r5
 174 0030 46F68402 		movw	r2, #26756
 175 0034 FFF7FEFF 		bl	CyDmaTdSetAddress
 176              	.LVL19:
 676:Generated_Source\PSoC5/VFD_1.c ****     (void)CyDmaChSetInitialTd(filtRdDmaCh, td);
ARM GAS  C:\Users\dph5ah\AppData\Local\Temp\ccrP8Bjg.s 			page 16


 177              		.loc 1 676 0
 178 0038 2079     		ldrb	r0, [r4, #4]	@ zero_extendqisi2
 179 003a 3146     		mov	r1, r6
 180 003c FFF7FEFF 		bl	CyDmaChSetInitialTd
 181              	.LVL20:
 677:Generated_Source\PSoC5/VFD_1.c **** 
 678:Generated_Source\PSoC5/VFD_1.c ****     /* Moves updated glitch filter result back to SRAM */ 
 679:Generated_Source\PSoC5/VFD_1.c ****     filtWrDmaCh = VFD_1_DMA_CFG(FiltWrDMA, FILT_DMA_DATA_SIZE, HI16(CYDEV_PERIPH_BASE), HI16(CYDEV_
 182              		.loc 1 679 0
 183 0040 0220     		movs	r0, #2
 184 0042 0121     		movs	r1, #1
 185 0044 4FF48042 		mov	r2, #16384
 186 0048 41F6FF73 		movw	r3, #8191
 187 004c FFF7FEFF 		bl	VFD_1_FiltWrDMA_DmaInitialize
 188              	.LVL21:
 189 0050 A072     		strb	r0, [r4, #10]
 680:Generated_Source\PSoC5/VFD_1.c ****     td = CyDmaTdAllocate();
 190              		.loc 1 680 0
 191 0052 FFF7FEFF 		bl	CyDmaTdAllocate
 192              	.LVL22:
 193 0056 0646     		mov	r6, r0
 194              	.LVL23:
 681:Generated_Source\PSoC5/VFD_1.c ****     (void)CyDmaTdSetConfiguration(td, sizeof(filtCount), td, CY_DMA_TD_INC_DST_ADR);
 195              		.loc 1 681 0
 196 0058 0221     		movs	r1, #2
 197 005a 0246     		mov	r2, r0
 198 005c 0B46     		mov	r3, r1
 199 005e FFF7FEFF 		bl	CyDmaTdSetConfiguration
 200              	.LVL24:
 682:Generated_Source\PSoC5/VFD_1.c ****     (void)CyDmaTdSetAddress(td, LO16((uint32)VFD_1_FILTER_OUT_FIFO_PTR), LO16((uint32)filtCount));
 201              		.loc 1 682 0
 202 0062 3046     		mov	r0, r6
 203 0064 46F6A401 		movw	r1, #26788
 204 0068 2A46     		mov	r2, r5
 205 006a FFF7FEFF 		bl	CyDmaTdSetAddress
 206              	.LVL25:
 683:Generated_Source\PSoC5/VFD_1.c ****     (void)CyDmaChSetInitialTd(filtWrDmaCh, td);
 207              		.loc 1 683 0
 208 006e A07A     		ldrb	r0, [r4, #10]	@ zero_extendqisi2
 209 0070 3146     		mov	r1, r6
 210 0072 FFF7FEFF 		bl	CyDmaChSetInitialTd
 211              	.LVL26:
 212 0076 70BD     		pop	{r4, r5, r6, pc}
 213              	.L11:
 214              		.align	2
 215              	.L10:
 216 0078 00000000 		.word	.LANCHOR0
 217              		.cfi_endproc
 218              	.LFE8:
 219              		.size	VFD_1_GlitchFilterDmaInit, .-VFD_1_GlitchFilterDmaInit
 220              		.section	.text.VFD_1_Init,"ax",%progbits
 221              		.align	2
 222              		.global	VFD_1_Init
 223              		.thumb
 224              		.thumb_func
 225              		.type	VFD_1_Init, %function
 226              	VFD_1_Init:
ARM GAS  C:\Users\dph5ah\AppData\Local\Temp\ccrP8Bjg.s 			page 17


 227              	.LFB0:
 130:Generated_Source\PSoC5/VFD_1.c ****     uint8 interruptState;
 228              		.loc 1 130 0
 229              		.cfi_startproc
 230              		@ args = 0, pretend = 0, frame = 0
 231              		@ frame_needed = 0, uses_anonymous_args = 0
 232 0000 08B5     		push	{r3, lr}
 233              		.cfi_def_cfa_offset 8
 234              		.cfi_offset 3, -8
 235              		.cfi_offset 14, -4
 136:Generated_Source\PSoC5/VFD_1.c ****     {
 236              		.loc 1 136 0
 237 0002 114B     		ldr	r3, .L15
 238 0004 DB7A     		ldrb	r3, [r3, #11]	@ zero_extendqisi2
 239 0006 33B9     		cbnz	r3, .L13
 138:Generated_Source\PSoC5/VFD_1.c ****         VFD_1_GlitchFilterDmaInit();
 240              		.loc 1 138 0
 241 0008 FFF7FEFF 		bl	VFD_1_AMuxDmaInit
 242              	.LVL27:
 139:Generated_Source\PSoC5/VFD_1.c ****         dmaInitDone = 1u;
 243              		.loc 1 139 0
 244 000c FFF7FEFF 		bl	VFD_1_GlitchFilterDmaInit
 245              	.LVL28:
 140:Generated_Source\PSoC5/VFD_1.c ****     }
 246              		.loc 1 140 0
 247 0010 0122     		movs	r2, #1
 248 0012 0D4B     		ldr	r3, .L15
 249 0014 DA72     		strb	r2, [r3, #11]
 250              	.L13:
 144:Generated_Source\PSoC5/VFD_1.c ****     #endif /* VFD_1_ENABLE_OV_DETECT */
 251              		.loc 1 144 0
 252 0016 FFF7FEFF 		bl	VFD_1_OVRefInit
 253              	.LVL29:
 254 001a FFF7FEFF 		bl	VFD_1_Comp_OV_Init
 255              	.LVL30:
 148:Generated_Source\PSoC5/VFD_1.c ****     #endif /* VFD_1_ENABLE_UV_DETECT */
 256              		.loc 1 148 0
 257 001e FFF7FEFF 		bl	VFD_1_UVRefInit
 258              	.LVL31:
 259 0022 FFF7FEFF 		bl	VFD_1_Comp_UV_Init
 260              	.LVL32:
 152:Generated_Source\PSoC5/VFD_1.c ****     #if (VFD_1_VIN_SETTLING_DELAY > VFD_1_VIN_SETTLING_DELAY_MIN)
 261              		.loc 1 152 0
 262 0026 FFF7FEFF 		bl	CyEnterCriticalSection
 263              	.LVL33:
 154:Generated_Source\PSoC5/VFD_1.c ****     #endif /* VFD_1_VIN_SETTLING_DELAY > VFD_1_VIN_SETTLING_DELAY_MIN */
 264              		.loc 1 154 0
 265 002a 084A     		ldr	r2, .L15+4
 266 002c 1378     		ldrb	r3, [r2]	@ zero_extendqisi2
 267 002e 43F02003 		orr	r3, r3, #32
 268 0032 1370     		strb	r3, [r2]
 156:Generated_Source\PSoC5/VFD_1.c ****     CyExitCriticalSection(interruptState);
 269              		.loc 1 156 0
 270 0034 02F58072 		add	r2, r2, #256
 271 0038 1378     		ldrb	r3, [r2]	@ zero_extendqisi2
 272 003a 43F02003 		orr	r3, r3, #32
 273 003e 1370     		strb	r3, [r2]
ARM GAS  C:\Users\dph5ah\AppData\Local\Temp\ccrP8Bjg.s 			page 18


 157:Generated_Source\PSoC5/VFD_1.c **** }
 274              		.loc 1 157 0
 275 0040 FFF7FEFF 		bl	CyExitCriticalSection
 276              	.LVL34:
 277 0044 08BD     		pop	{r3, pc}
 278              	.L16:
 279 0046 00BF     		.align	2
 280              	.L15:
 281 0048 00000000 		.word	.LANCHOR0
 282 004c 95640040 		.word	1073767573
 283              		.cfi_endproc
 284              	.LFE0:
 285              		.size	VFD_1_Init, .-VFD_1_Init
 286              		.section	.text.VFD_1_Enable,"ax",%progbits
 287              		.align	2
 288              		.global	VFD_1_Enable
 289              		.thumb
 290              		.thumb_func
 291              		.type	VFD_1_Enable, %function
 292              	VFD_1_Enable:
 293              	.LFB1:
 187:Generated_Source\PSoC5/VFD_1.c ****     /* AMux control uses TD chain. Set initial TD in chain. */
 294              		.loc 1 187 0
 295              		.cfi_startproc
 296              		@ args = 0, pretend = 0, frame = 0
 297              		@ frame_needed = 0, uses_anonymous_args = 0
 298 0000 10B5     		push	{r4, lr}
 299              		.cfi_def_cfa_offset 8
 300              		.cfi_offset 4, -8
 301              		.cfi_offset 14, -4
 189:Generated_Source\PSoC5/VFD_1.c ****     (void)CyDmaChEnable(amuxDmaCh, 1u);
 302              		.loc 1 189 0
 303 0002 104C     		ldr	r4, .L19
 304 0004 6078     		ldrb	r0, [r4, #1]	@ zero_extendqisi2
 305 0006 E178     		ldrb	r1, [r4, #3]	@ zero_extendqisi2
 306 0008 FFF7FEFF 		bl	CyDmaChSetInitialTd
 307              	.LVL35:
 190:Generated_Source\PSoC5/VFD_1.c ****     (void)CyDmaChEnable(filtRdDmaCh, 1u);
 308              		.loc 1 190 0
 309 000c 6078     		ldrb	r0, [r4, #1]	@ zero_extendqisi2
 310 000e 0121     		movs	r1, #1
 311 0010 FFF7FEFF 		bl	CyDmaChEnable
 312              	.LVL36:
 191:Generated_Source\PSoC5/VFD_1.c ****     (void)CyDmaChEnable(filtWrDmaCh, 1u);
 313              		.loc 1 191 0
 314 0014 2079     		ldrb	r0, [r4, #4]	@ zero_extendqisi2
 315 0016 0121     		movs	r1, #1
 316 0018 FFF7FEFF 		bl	CyDmaChEnable
 317              	.LVL37:
 192:Generated_Source\PSoC5/VFD_1.c ****        
 318              		.loc 1 192 0
 319 001c A07A     		ldrb	r0, [r4, #10]	@ zero_extendqisi2
 320 001e 0121     		movs	r1, #1
 321 0020 FFF7FEFF 		bl	CyDmaChEnable
 322              	.LVL38:
 195:Generated_Source\PSoC5/VFD_1.c ****     #endif /* VFD_1_ENABLE_OV_DETECT */
 323              		.loc 1 195 0
ARM GAS  C:\Users\dph5ah\AppData\Local\Temp\ccrP8Bjg.s 			page 19


 324 0024 FFF7FEFF 		bl	VFD_1_OVRefEnable
 325              	.LVL39:
 326 0028 FFF7FEFF 		bl	VFD_1_Comp_OV_Enable
 327              	.LVL40:
 199:Generated_Source\PSoC5/VFD_1.c ****     #endif /* VFD_1_ENABLE_UV_DETECT */
 328              		.loc 1 199 0
 329 002c FFF7FEFF 		bl	VFD_1_UVRefEnable
 330              	.LVL41:
 331 0030 FFF7FEFF 		bl	VFD_1_Comp_UV_Enable
 332              	.LVL42:
 203:Generated_Source\PSoC5/VFD_1.c **** 
 333              		.loc 1 203 0
 334 0034 0023     		movs	r3, #0
 335 0036 2381     		strh	r3, [r4, #8]	@ movhi
 206:Generated_Source\PSoC5/VFD_1.c **** 
 336              		.loc 1 206 0
 337 0038 034A     		ldr	r2, .L19+4
 338 003a 1370     		strb	r3, [r2]
 209:Generated_Source\PSoC5/VFD_1.c **** }
 339              		.loc 1 209 0
 340 003c 0122     		movs	r2, #1
 341 003e 034B     		ldr	r3, .L19+8
 342 0040 1A70     		strb	r2, [r3]
 343 0042 10BD     		pop	{r4, pc}
 344              	.L20:
 345              		.align	2
 346              	.L19:
 347 0044 00000000 		.word	.LANCHOR0
 348 0048 75650040 		.word	1073767797
 349 004c 72640040 		.word	1073767538
 350              		.cfi_endproc
 351              	.LFE1:
 352              		.size	VFD_1_Enable, .-VFD_1_Enable
 353              		.section	.text.VFD_1_Stop,"ax",%progbits
 354              		.align	2
 355              		.global	VFD_1_Stop
 356              		.thumb
 357              		.thumb_func
 358              		.type	VFD_1_Stop, %function
 359              	VFD_1_Stop:
 360              	.LFB3:
 272:Generated_Source\PSoC5/VFD_1.c ****     uint8 indx;
 361              		.loc 1 272 0
 362              		.cfi_startproc
 363              		@ args = 0, pretend = 0, frame = 0
 364              		@ frame_needed = 0, uses_anonymous_args = 0
 365 0000 38B5     		push	{r3, r4, r5, lr}
 366              		.cfi_def_cfa_offset 16
 367              		.cfi_offset 3, -16
 368              		.cfi_offset 4, -12
 369              		.cfi_offset 5, -8
 370              		.cfi_offset 14, -4
 277:Generated_Source\PSoC5/VFD_1.c ****     
 371              		.loc 1 277 0
 372 0002 0024     		movs	r4, #0
 373 0004 204B     		ldr	r3, .L25
 374 0006 1C70     		strb	r4, [r3]
ARM GAS  C:\Users\dph5ah\AppData\Local\Temp\ccrP8Bjg.s 			page 20


 280:Generated_Source\PSoC5/VFD_1.c ****     (void)CyDmaChSetRequest(filtRdDmaCh, CY_DMA_CPU_TERM_CHAIN);
 375              		.loc 1 280 0
 376 0008 204D     		ldr	r5, .L25+4
 377 000a 6878     		ldrb	r0, [r5, #1]	@ zero_extendqisi2
 378 000c 0421     		movs	r1, #4
 379 000e FFF7FEFF 		bl	CyDmaChSetRequest
 380              	.LVL43:
 281:Generated_Source\PSoC5/VFD_1.c ****     (void)CyDmaChSetRequest(filtWrDmaCh, CY_DMA_CPU_TERM_CHAIN);
 381              		.loc 1 281 0
 382 0012 2879     		ldrb	r0, [r5, #4]	@ zero_extendqisi2
 383 0014 0421     		movs	r1, #4
 384 0016 FFF7FEFF 		bl	CyDmaChSetRequest
 385              	.LVL44:
 282:Generated_Source\PSoC5/VFD_1.c ****         
 386              		.loc 1 282 0
 387 001a A87A     		ldrb	r0, [r5, #10]	@ zero_extendqisi2
 388 001c 0421     		movs	r1, #4
 389 001e FFF7FEFF 		bl	CyDmaChSetRequest
 390              	.LVL45:
 285:Generated_Source\PSoC5/VFD_1.c ****     (void)CyDmaClearPendingDrq(filtRdDmaCh);
 391              		.loc 1 285 0
 392 0022 6878     		ldrb	r0, [r5, #1]	@ zero_extendqisi2
 393 0024 FFF7FEFF 		bl	CyDmaClearPendingDrq
 394              	.LVL46:
 286:Generated_Source\PSoC5/VFD_1.c ****     (void)CyDmaClearPendingDrq(filtWrDmaCh);
 395              		.loc 1 286 0
 396 0028 2879     		ldrb	r0, [r5, #4]	@ zero_extendqisi2
 397 002a FFF7FEFF 		bl	CyDmaClearPendingDrq
 398              	.LVL47:
 287:Generated_Source\PSoC5/VFD_1.c **** 
 399              		.loc 1 287 0
 400 002e A87A     		ldrb	r0, [r5, #10]	@ zero_extendqisi2
 401 0030 FFF7FEFF 		bl	CyDmaClearPendingDrq
 402              	.LVL48:
 290:Generated_Source\PSoC5/VFD_1.c ****     #endif /* VFD_1_ENABLE_OV_DETECT */
 403              		.loc 1 290 0
 404 0034 FFF7FEFF 		bl	VFD_1_OVRefStop
 405              	.LVL49:
 406 0038 FFF7FEFF 		bl	VFD_1_Comp_OV_Stop
 407              	.LVL50:
 294:Generated_Source\PSoC5/VFD_1.c ****     #endif /* VFD_1_ENABLE_UV_DETECT */
 408              		.loc 1 294 0
 409 003c FFF7FEFF 		bl	VFD_1_UVRefStop
 410              	.LVL51:
 411 0040 FFF7FEFF 		bl	VFD_1_Comp_UV_Stop
 412              	.LVL52:
 298:Generated_Source\PSoC5/VFD_1.c ****     {
 413              		.loc 1 298 0
 414 0044 2346     		mov	r3, r4
 415 0046 06E0     		b	.L22
 416              	.LVL53:
 417              	.L23:
 300:Generated_Source\PSoC5/VFD_1.c ****     }
 418              		.loc 1 300 0 discriminator 3
 419 0048 114A     		ldr	r2, .L25+8
 420 004a 52F82320 		ldr	r2, [r2, r3, lsl #2]
 421 004e 0021     		movs	r1, #0
ARM GAS  C:\Users\dph5ah\AppData\Local\Temp\ccrP8Bjg.s 			page 21


 422 0050 1170     		strb	r1, [r2]
 298:Generated_Source\PSoC5/VFD_1.c ****     {
 423              		.loc 1 298 0 discriminator 3
 424 0052 0133     		adds	r3, r3, #1
 425              	.LVL54:
 426 0054 DBB2     		uxtb	r3, r3
 427              	.LVL55:
 428              	.L22:
 298:Generated_Source\PSoC5/VFD_1.c ****     {
 429              		.loc 1 298 0 is_stmt 0 discriminator 1
 430 0056 002B     		cmp	r3, #0
 431 0058 F6D0     		beq	.L23
 303:Generated_Source\PSoC5/VFD_1.c ****     VFD_1_PG_FILTER_FIFO_ACTL_REG |= VFD_1_FIFO_CLR;
 432              		.loc 1 303 0 is_stmt 1
 433 005a FFF7FEFF 		bl	CyEnterCriticalSection
 434              	.LVL56:
 304:Generated_Source\PSoC5/VFD_1.c ****     VFD_1_PG_FILTER_FIFO_ACTL_REG &= (uint8)~VFD_1_FIFO_CLR;
 435              		.loc 1 304 0
 436 005e 0D4B     		ldr	r3, .L25+12
 437 0060 1A78     		ldrb	r2, [r3]	@ zero_extendqisi2
 438 0062 42F00302 		orr	r2, r2, #3
 439 0066 1A70     		strb	r2, [r3]
 305:Generated_Source\PSoC5/VFD_1.c ****     #if (VFD_1_ENABLE_OV_DETECT)
 440              		.loc 1 305 0
 441 0068 1A78     		ldrb	r2, [r3]	@ zero_extendqisi2
 442 006a 02F0FC02 		and	r2, r2, #252
 443 006e 1A70     		strb	r2, [r3]
 307:Generated_Source\PSoC5/VFD_1.c ****         VFD_1_OV_FILTER_FIFO_ACTL_REG &= (uint8)~VFD_1_FIFO_CLR;
 444              		.loc 1 307 0
 445 0070 0133     		adds	r3, r3, #1
 446 0072 1A78     		ldrb	r2, [r3]	@ zero_extendqisi2
 447 0074 42F00302 		orr	r2, r2, #3
 448 0078 1A70     		strb	r2, [r3]
 308:Generated_Source\PSoC5/VFD_1.c ****     #endif /* VFD_1_ENABLE_OV_DETECT */
 449              		.loc 1 308 0
 450 007a 1A78     		ldrb	r2, [r3]	@ zero_extendqisi2
 451 007c 02F0FC02 		and	r2, r2, #252
 452 0080 1A70     		strb	r2, [r3]
 310:Generated_Source\PSoC5/VFD_1.c **** }
 453              		.loc 1 310 0
 454 0082 FFF7FEFF 		bl	CyExitCriticalSection
 455              	.LVL57:
 456 0086 38BD     		pop	{r3, r4, r5, pc}
 457              	.L26:
 458              		.align	2
 459              	.L25:
 460 0088 72640040 		.word	1073767538
 461 008c 00000000 		.word	.LANCHOR0
 462 0090 00000000 		.word	VFD_1_AMux__addrTable
 463 0094 92640040 		.word	1073767570
 464              		.cfi_endproc
 465              	.LFE3:
 466              		.size	VFD_1_Stop, .-VFD_1_Stop
 467              		.section	.text.VFD_1_GetOVUVFaultStatus,"ax",%progbits
 468              		.align	2
 469              		.global	VFD_1_GetOVUVFaultStatus
 470              		.thumb
ARM GAS  C:\Users\dph5ah\AppData\Local\Temp\ccrP8Bjg.s 			page 22


 471              		.thumb_func
 472              		.type	VFD_1_GetOVUVFaultStatus, %function
 473              	VFD_1_GetOVUVFaultStatus:
 474              	.LFB4:
 340:Generated_Source\PSoC5/VFD_1.c ****     FAULT_STS ovLocal;
 475              		.loc 1 340 0
 476              		.cfi_startproc
 477              		@ args = 0, pretend = 0, frame = 0
 478              		@ frame_needed = 0, uses_anonymous_args = 0
 479              		@ link register save eliminated.
 480              	.LVL58:
 481 0000 10B4     		push	{r4}
 482              		.cfi_def_cfa_offset 4
 483              		.cfi_offset 4, -4
 354:Generated_Source\PSoC5/VFD_1.c ****         uvLocal.bytes[STS_B1] = (uint8)~(VFD_1_PG_STS8_STATUS_REG | ovLocal.bytes[STS_B1]);
 484              		.loc 1 354 0
 485 0002 0F4B     		ldr	r3, .L29
 486 0004 1B78     		ldrb	r3, [r3]	@ zero_extendqisi2
 487 0006 0022     		movs	r2, #0
 488              	.LVL59:
 489 0008 63F30702 		bfi	r2, r3, #0, #8
 490              	.LVL60:
 355:Generated_Source\PSoC5/VFD_1.c ****     #endif /* VFD_1_PG_STS8_STATUS_REG */
 491              		.loc 1 355 0
 492 000c 0D4B     		ldr	r3, .L29+4
 493 000e 1C78     		ldrb	r4, [r3]	@ zero_extendqisi2
 494 0010 D3B2     		uxtb	r3, r2
 495 0012 2343     		orrs	r3, r3, r4
 496 0014 DB43     		mvns	r3, r3
 497 0016 DBB2     		uxtb	r3, r3
 498 0018 0024     		movs	r4, #0
 499              	.LVL61:
 500 001a 63F30704 		bfi	r4, r3, #0, #8
 501              	.LVL62:
 361:Generated_Source\PSoC5/VFD_1.c ****         uvLocal.bytes[STS_B2] = 0u;
 502              		.loc 1 361 0
 503 001e 6FF30F22 		bfc	r2, #8, #8
 362:Generated_Source\PSoC5/VFD_1.c ****     #endif /* VFD_1_PG_STS16_STATUS_REG */
 504              		.loc 1 362 0
 505 0022 6FF30F24 		bfc	r4, #8, #8
 368:Generated_Source\PSoC5/VFD_1.c ****         uvLocal.bytes[STS_B3] = 0u;
 506              		.loc 1 368 0
 507 0026 6FF31742 		bfc	r2, #16, #8
 369:Generated_Source\PSoC5/VFD_1.c ****     #endif /* VFD_1_PG_STS24_STATUS_REG */
 508              		.loc 1 369 0
 509 002a 6FF31744 		bfc	r4, #16, #8
 375:Generated_Source\PSoC5/VFD_1.c ****         uvLocal.bytes[STS_B4] = 0u;
 510              		.loc 1 375 0
 511 002e 6FF31F62 		bfc	r2, #24, #8
 376:Generated_Source\PSoC5/VFD_1.c ****     #endif /* VFD_1_PG_STS32_STATUS_REG */
 512              		.loc 1 376 0
 513 0032 6FF31F64 		bfc	r4, #24, #8
 379:Generated_Source\PSoC5/VFD_1.c ****     *uvStatus = uvLocal.word;
 514              		.loc 1 379 0
 515 0036 0260     		str	r2, [r0]
 380:Generated_Source\PSoC5/VFD_1.c **** }
 516              		.loc 1 380 0
ARM GAS  C:\Users\dph5ah\AppData\Local\Temp\ccrP8Bjg.s 			page 23


 517 0038 0C60     		str	r4, [r1]
 381:Generated_Source\PSoC5/VFD_1.c **** 
 518              		.loc 1 381 0
 519 003a 5DF8044B 		ldr	r4, [sp], #4
 520              		.cfi_restore 4
 521              		.cfi_def_cfa_offset 0
 522              	.LVL63:
 523 003e 7047     		bx	lr
 524              	.L30:
 525              		.align	2
 526              	.L29:
 527 0040 66650040 		.word	1073767782
 528 0044 64650040 		.word	1073767780
 529              		.cfi_endproc
 530              	.LFE4:
 531              		.size	VFD_1_GetOVUVFaultStatus, .-VFD_1_GetOVUVFaultStatus
 532              		.section	.text.VFD_1_ComparatorCal,"ax",%progbits
 533              		.align	2
 534              		.global	VFD_1_ComparatorCal
 535              		.thumb
 536              		.thumb_func
 537              		.type	VFD_1_ComparatorCal, %function
 538              	VFD_1_ComparatorCal:
 539              	.LFB5:
 517:Generated_Source\PSoC5/VFD_1.c ****     #if (VFD_1_ENABLE_OV_DETECT)
 540              		.loc 1 517 0
 541              		.cfi_startproc
 542              		@ args = 0, pretend = 0, frame = 0
 543              		@ frame_needed = 0, uses_anonymous_args = 0
 544              	.LVL64:
 545 0000 10B5     		push	{r4, lr}
 546              		.cfi_def_cfa_offset 8
 547              		.cfi_offset 4, -8
 548              		.cfi_offset 14, -4
 549 0002 0446     		mov	r4, r0
 519:Generated_Source\PSoC5/VFD_1.c ****         {
 550              		.loc 1 519 0
 551 0004 0128     		cmp	r0, #1
 552 0006 01D1     		bne	.L32
 521:Generated_Source\PSoC5/VFD_1.c ****         }
 553              		.loc 1 521 0
 554 0008 FFF7FEFF 		bl	VFD_1_Comp_OV_ZeroCal
 555              	.LVL65:
 556              	.L32:
 526:Generated_Source\PSoC5/VFD_1.c ****         {
 557              		.loc 1 526 0
 558 000c 022C     		cmp	r4, #2
 559 000e 01D1     		bne	.L31
 528:Generated_Source\PSoC5/VFD_1.c ****         }
 560              		.loc 1 528 0
 561 0010 FFF7FEFF 		bl	VFD_1_Comp_UV_ZeroCal
 562              	.LVL66:
 563              	.L31:
 564 0014 10BD     		pop	{r4, pc}
 565              		.cfi_endproc
 566              	.LFE5:
 567              		.size	VFD_1_ComparatorCal, .-VFD_1_ComparatorCal
ARM GAS  C:\Users\dph5ah\AppData\Local\Temp\ccrP8Bjg.s 			page 24


 568 0016 00BF     		.section	.text.VFD_1_Start,"ax",%progbits
 569              		.align	2
 570              		.global	VFD_1_Start
 571              		.thumb
 572              		.thumb_func
 573              		.type	VFD_1_Start, %function
 574              	VFD_1_Start:
 575              	.LFB2:
 237:Generated_Source\PSoC5/VFD_1.c ****     if(VFD_1_initVar == 0u)
 576              		.loc 1 237 0
 577              		.cfi_startproc
 578              		@ args = 0, pretend = 0, frame = 0
 579              		@ frame_needed = 0, uses_anonymous_args = 0
 580 0000 08B5     		push	{r3, lr}
 581              		.cfi_def_cfa_offset 8
 582              		.cfi_offset 3, -8
 583              		.cfi_offset 14, -4
 238:Generated_Source\PSoC5/VFD_1.c ****     {
 584              		.loc 1 238 0
 585 0002 084B     		ldr	r3, .L38
 586 0004 1B7B     		ldrb	r3, [r3, #12]	@ zero_extendqisi2
 587 0006 23B9     		cbnz	r3, .L36
 240:Generated_Source\PSoC5/VFD_1.c ****         VFD_1_initVar = 1u;
 588              		.loc 1 240 0
 589 0008 FFF7FEFF 		bl	VFD_1_Init
 590              	.LVL67:
 241:Generated_Source\PSoC5/VFD_1.c ****     }
 591              		.loc 1 241 0
 592 000c 0122     		movs	r2, #1
 593 000e 054B     		ldr	r3, .L38
 594 0010 1A73     		strb	r2, [r3, #12]
 595              	.L36:
 244:Generated_Source\PSoC5/VFD_1.c ****     VFD_1_ComparatorCal(VFD_1_UV);
 596              		.loc 1 244 0
 597 0012 0120     		movs	r0, #1
 598 0014 FFF7FEFF 		bl	VFD_1_ComparatorCal
 599              	.LVL68:
 245:Generated_Source\PSoC5/VFD_1.c ****     VFD_1_Enable();
 600              		.loc 1 245 0
 601 0018 0220     		movs	r0, #2
 602 001a FFF7FEFF 		bl	VFD_1_ComparatorCal
 603              	.LVL69:
 246:Generated_Source\PSoC5/VFD_1.c **** }
 604              		.loc 1 246 0
 605 001e FFF7FEFF 		bl	VFD_1_Enable
 606              	.LVL70:
 607 0022 08BD     		pop	{r3, pc}
 608              	.L39:
 609              		.align	2
 610              	.L38:
 611 0024 00000000 		.word	.LANCHOR0
 612              		.cfi_endproc
 613              	.LFE2:
 614              		.size	VFD_1_Start, .-VFD_1_Start
 615              		.section	.text.VFD_1_SetSpeed,"ax",%progbits
 616              		.align	2
 617              		.global	VFD_1_SetSpeed
ARM GAS  C:\Users\dph5ah\AppData\Local\Temp\ccrP8Bjg.s 			page 25


 618              		.thumb
 619              		.thumb_func
 620              		.type	VFD_1_SetSpeed, %function
 621              	VFD_1_SetSpeed:
 622              	.LFB6:
 553:Generated_Source\PSoC5/VFD_1.c ****     if(speedMode == VFD_1_LOW_SPEED)
 623              		.loc 1 553 0
 624              		.cfi_startproc
 625              		@ args = 0, pretend = 0, frame = 0
 626              		@ frame_needed = 0, uses_anonymous_args = 0
 627              	.LVL71:
 628 0000 08B5     		push	{r3, lr}
 629              		.cfi_def_cfa_offset 8
 630              		.cfi_offset 3, -8
 631              		.cfi_offset 14, -4
 554:Generated_Source\PSoC5/VFD_1.c ****     {
 632              		.loc 1 554 0
 633 0002 58B9     		cbnz	r0, .L41
 557:Generated_Source\PSoC5/VFD_1.c ****         #endif /* VFD_1_ENABLE_OV_DETECT */
 634              		.loc 1 557 0
 635 0004 FFF7FEFF 		bl	VFD_1_Comp_OV_SetSpeed
 636              	.LVL72:
 637 0008 0020     		movs	r0, #0
 638 000a FFF7FEFF 		bl	VFD_1_VDAC_OV_SetSpeed
 639              	.LVL73:
 561:Generated_Source\PSoC5/VFD_1.c ****         #endif /* VFD_1_ENABLE_UV_DETECT */
 640              		.loc 1 561 0
 641 000e 0020     		movs	r0, #0
 642 0010 FFF7FEFF 		bl	VFD_1_Comp_UV_SetSpeed
 643              	.LVL74:
 644 0014 0020     		movs	r0, #0
 645 0016 FFF7FEFF 		bl	VFD_1_VDAC_UV_SetSpeed
 646              	.LVL75:
 647 001a 08BD     		pop	{r3, pc}
 648              	.LVL76:
 649              	.L41:
 567:Generated_Source\PSoC5/VFD_1.c ****         #endif /* VFD_1_ENABLE_OV_DETECT */
 650              		.loc 1 567 0
 651 001c 0120     		movs	r0, #1
 652              	.LVL77:
 653 001e FFF7FEFF 		bl	VFD_1_Comp_OV_SetSpeed
 654              	.LVL78:
 655 0022 0220     		movs	r0, #2
 656 0024 FFF7FEFF 		bl	VFD_1_VDAC_OV_SetSpeed
 657              	.LVL79:
 571:Generated_Source\PSoC5/VFD_1.c ****         #endif /* VFD_1_ENABLE_UV_DETECT */
 658              		.loc 1 571 0
 659 0028 0120     		movs	r0, #1
 660 002a FFF7FEFF 		bl	VFD_1_Comp_UV_SetSpeed
 661              	.LVL80:
 662 002e 0220     		movs	r0, #2
 663 0030 FFF7FEFF 		bl	VFD_1_VDAC_UV_SetSpeed
 664              	.LVL81:
 665 0034 08BD     		pop	{r3, pc}
 666              		.cfi_endproc
 667              	.LFE6:
 668              		.size	VFD_1_SetSpeed, .-VFD_1_SetSpeed
ARM GAS  C:\Users\dph5ah\AppData\Local\Temp\ccrP8Bjg.s 			page 26


 669              		.global	VFD_1_VoltageScale
 670              		.global	VFD_1_initVar
 671 0036 00BF     		.section	.rodata
 672              		.align	2
 673              		.type	VFD_1_VoltageScale, %object
 674              		.size	VFD_1_VoltageScale, 2
 675              	VFD_1_VoltageScale:
 676 0000 E803     		.short	1000
 677 0002 0000     		.bss
 678              		.align	2
 679              		.set	.LANCHOR0,. + 0
 680              		.type	amuxMaskTable.5150, %object
 681              		.size	amuxMaskTable.5150, 1
 682              	amuxMaskTable.5150:
 683 0000 00       		.space	1
 684              		.type	amuxDmaCh, %object
 685              		.size	amuxDmaCh, 1
 686              	amuxDmaCh:
 687 0001 00       		.space	1
 688              		.type	amuxClear.5149, %object
 689              		.size	amuxClear.5149, 1
 690              	amuxClear.5149:
 691 0002 00       		.space	1
 692              		.type	amuxDmaTd, %object
 693              		.size	amuxDmaTd, 1
 694              	amuxDmaTd:
 695 0003 00       		.space	1
 696              		.type	filtRdDmaCh, %object
 697              		.size	filtRdDmaCh, 1
 698              	filtRdDmaCh:
 699 0004 00       		.space	1
 700 0005 000000   		.space	3
 701              		.type	filtCount, %object
 702              		.size	filtCount, 2
 703              	filtCount:
 704 0008 0000     		.space	2
 705              		.type	filtWrDmaCh, %object
 706              		.size	filtWrDmaCh, 1
 707              	filtWrDmaCh:
 708 000a 00       		.space	1
 709              		.type	dmaInitDone.5116, %object
 710              		.size	dmaInitDone.5116, 1
 711              	dmaInitDone.5116:
 712 000b 00       		.space	1
 713              		.type	VFD_1_initVar, %object
 714              		.size	VFD_1_initVar, 1
 715              	VFD_1_initVar:
 716 000c 00       		.space	1
 717 000d 000000   		.text
 718              	.Letext0:
 719              		.file 2 "Generated_Source\\PSoC5\\cytypes.h"
 720              		.file 3 "Generated_Source\\PSoC5\\VFD_1_PVT.h"
 721              		.file 4 "Generated_Source\\PSoC5\\VFD_1_MuxDMA_dma.h"
 722              		.file 5 "Generated_Source\\PSoC5/CYDMAC.H"
 723              		.file 6 "Generated_Source\\PSoC5\\VFD_1_FiltRdDMA_dma.h"
 724              		.file 7 "Generated_Source\\PSoC5\\VFD_1_FiltWrDMA_dma.h"
 725              		.file 8 "Generated_Source\\PSoC5\\VFD_1_OV.h"
ARM GAS  C:\Users\dph5ah\AppData\Local\Temp\ccrP8Bjg.s 			page 27


 726              		.file 9 "Generated_Source\\PSoC5\\VFD_1_Comp_OV.h"
 727              		.file 10 "Generated_Source\\PSoC5\\VFD_1_UV.h"
 728              		.file 11 "Generated_Source\\PSoC5\\VFD_1_Comp_UV.h"
 729              		.file 12 "Generated_Source\\PSoC5/CyLib.h"
 730              		.file 13 "Generated_Source\\PSoC5\\VFD_1_VDAC_OV.h"
 731              		.file 14 "Generated_Source\\PSoC5\\VFD_1_VDAC_UV.h"